---
triple:          'x86_64-apple-darwin'
binary-path:     TaskManagerTest
relocations:
  - { offsetInCU: 0x4798, offset: 0x4798, size: 0x8, addend: 0x0, symName: __ZNSt3__1eqB8ue170006INS_9allocatorIcEEEEbRKNS_12basic_stringIcNS_11char_traitsIcEET_EES9_, symObjAddr: 0x210, symBinAddr: 0x1000010F0, symSize: 0x110 }
  - { offsetInCU: 0x480B, offset: 0x480B, size: 0x8, addend: 0x0, symName: __ZNSt3__14endlB8ue170006IcNS_11char_traitsIcEEEERNS_13basic_ostreamIT_T0_EES7_, symObjAddr: 0xBE0, symBinAddr: 0x100001AC0, symSize: 0x50 }
  - { offsetInCU: 0x484B, offset: 0x484B, size: 0x8, addend: 0x0, symName: __ZNSt3__118__constexpr_strlenB8ue170006EPKc, symObjAddr: 0x16E0, symBinAddr: 0x1000025C0, symSize: 0x20 }
  - { offsetInCU: 0x4877, offset: 0x4877, size: 0x8, addend: 0x0, symName: __ZNSt3__112__to_addressB8ue170006IKcEEPT_S3_, symObjAddr: 0x1950, symBinAddr: 0x100002830, symSize: 0x10 }
  - { offsetInCU: 0x48DF, offset: 0x48DF, size: 0x8, addend: 0x0, symName: __ZNSt3__19use_facetB8ue170006INS_5ctypeIcEEEERKT_RKNS_6localeE, symObjAddr: 0x1AD0, symBinAddr: 0x1000029B0, symSize: 0x30 }
  - { offsetInCU: 0x7E78, offset: 0x7E78, size: 0x8, addend: 0x0, symName: __ZN11TaskManagerC2Ev, symObjAddr: 0x0, symBinAddr: 0x100000EE0, symSize: 0x100 }
  - { offsetInCU: 0x7EA7, offset: 0x7EA7, size: 0x8, addend: 0x0, symName: __ZNSt3__112basic_stringIcNS_11char_traitsIcEENS_9allocatorIcEEEC1B8ue170006ILi0EEEPKc, symObjAddr: 0x100, symBinAddr: 0x100000FE0, symSize: 0x30 }
  - { offsetInCU: 0x7EE4, offset: 0x7EE4, size: 0x8, addend: 0x0, symName: __ZN6PersonD1Ev, symObjAddr: 0x130, symBinAddr: 0x100001010, symSize: 0x20 }
  - { offsetInCU: 0x7F0E, offset: 0x7F0E, size: 0x8, addend: 0x0, symName: __ZN11TaskManagerC1Ev, symObjAddr: 0x150, symBinAddr: 0x100001030, symSize: 0x20 }
  - { offsetInCU: 0x7F38, offset: 0x7F38, size: 0x8, addend: 0x0, symName: __ZN11TaskManager15isEmployeeExistERKNSt3__112basic_stringIcNS0_11char_traitsIcEENS0_9allocatorIcEEEE, symObjAddr: 0x170, symBinAddr: 0x100001050, symSize: 0xA0 }
  - { offsetInCU: 0x7F96, offset: 0x7F96, size: 0x8, addend: 0x0, symName: __ZN11TaskManager10assignTaskERKNSt3__112basic_stringIcNS0_11char_traitsIcEENS0_9allocatorIcEEEERK4Task, symObjAddr: 0x320, symBinAddr: 0x100001200, symSize: 0x220 }
  - { offsetInCU: 0x8015, offset: 0x8015, size: 0x8, addend: 0x0, symName: __ZN6PersonaSERKS_, symObjAddr: 0x540, symBinAddr: 0x100001420, symSize: 0x40 }
  - { offsetInCU: 0x8044, offset: 0x8044, size: 0x8, addend: 0x0, symName: __ZN4TaskD1Ev, symObjAddr: 0x580, symBinAddr: 0x100001460, symSize: 0x20 }
  - { offsetInCU: 0x806E, offset: 0x806E, size: 0x8, addend: 0x0, symName: __ZN11TaskManager12completeTaskERKNSt3__112basic_stringIcNS0_11char_traitsIcEENS0_9allocatorIcEEEE, symObjAddr: 0x5A0, symBinAddr: 0x100001480, symSize: 0x60 }
  - { offsetInCU: 0x80B1, offset: 0x80B1, size: 0x8, addend: 0x0, symName: __ZN11TaskManager11setPriorityERK4Task8TaskTypei, symObjAddr: 0x600, symBinAddr: 0x1000014E0, symSize: 0x120 }
  - { offsetInCU: 0x8107, offset: 0x8107, size: 0x8, addend: 0x0, symName: __ZN4TaskC1ERKS_, symObjAddr: 0x720, symBinAddr: 0x100001600, symSize: 0x30 }
  - { offsetInCU: 0x813A, offset: 0x813A, size: 0x8, addend: 0x0, symName: __ZN11TaskManager18bumpPriorityByTypeE8TaskTypei, symObjAddr: 0x750, symBinAddr: 0x100001630, symSize: 0x120 }
  - { offsetInCU: 0x81EC, offset: 0x81EC, size: 0x8, addend: 0x0, symName: __ZN3mtm10SortedListI4TaskEC1ERKS2_, symObjAddr: 0x870, symBinAddr: 0x100001750, symSize: 0xF0 }
  - { offsetInCU: 0x8276, offset: 0x8276, size: 0x8, addend: 0x0, symName: '__ZNK3mtm10SortedListI4TaskE5applyIZN11TaskManager18bumpPriorityByTypeE8TaskTypeiE3$_0EES2_T_', symObjAddr: 0x960, symBinAddr: 0x100001840, symSize: 0x1D0 }
  - { offsetInCU: 0x830F, offset: 0x830F, size: 0x8, addend: 0x0, symName: __ZN3mtm10SortedListI4TaskED1Ev, symObjAddr: 0xB30, symBinAddr: 0x100001A10, symSize: 0x20 }
  - { offsetInCU: 0x8337, offset: 0x8337, size: 0x8, addend: 0x0, symName: __ZNK11TaskManager17printAllEmployeesEv, symObjAddr: 0xB50, symBinAddr: 0x100001A30, symSize: 0x70 }
  - { offsetInCU: 0x837A, offset: 0x837A, size: 0x8, addend: 0x0, symName: __ZNSt3__113basic_ostreamIcNS_11char_traitsIcEEElsB8ue170006EPFRS3_S4_E, symObjAddr: 0xBC0, symBinAddr: 0x100001AA0, symSize: 0x20 }
  - { offsetInCU: 0x83AD, offset: 0x83AD, size: 0x8, addend: 0x0, symName: __ZN11TaskManager10printTasksERKN3mtm10SortedListI4TaskEE, symObjAddr: 0xC30, symBinAddr: 0x100001B10, symSize: 0x90 }
  - { offsetInCU: 0x8423, offset: 0x8423, size: 0x8, addend: 0x0, symName: __ZNK3mtm10SortedListI4TaskE5beginEv, symObjAddr: 0xCC0, symBinAddr: 0x100001BA0, symSize: 0x30 }
  - { offsetInCU: 0x8448, offset: 0x8448, size: 0x8, addend: 0x0, symName: __ZNK3mtm10SortedListI4TaskE3endEv, symObjAddr: 0xCF0, symBinAddr: 0x100001BD0, symSize: 0x30 }
  - { offsetInCU: 0x846D, offset: 0x846D, size: 0x8, addend: 0x0, symName: __ZNK3mtm10SortedListI4TaskE13ConstIteratorneERKS3_, symObjAddr: 0xD20, symBinAddr: 0x100001C00, symSize: 0x30 }
  - { offsetInCU: 0x84A1, offset: 0x84A1, size: 0x8, addend: 0x0, symName: __ZNK3mtm10SortedListI4TaskE13ConstIteratordeEv, symObjAddr: 0xD50, symBinAddr: 0x100001C30, symSize: 0xA0 }
  - { offsetInCU: 0x84C6, offset: 0x84C6, size: 0x8, addend: 0x0, symName: __ZN3mtm10SortedListI4TaskE13ConstIteratorppEv, symObjAddr: 0xDF0, symBinAddr: 0x100001CD0, symSize: 0xA0 }
  - { offsetInCU: 0x84EA, offset: 0x84EA, size: 0x8, addend: 0x0, symName: __ZNK11TaskManager13printAllTasksEv, symObjAddr: 0xE90, symBinAddr: 0x100001D70, symSize: 0x60 }
  - { offsetInCU: 0x851E, offset: 0x851E, size: 0x8, addend: 0x0, symName: __ZNK11TaskManager20getAllEmployeesTasksEv, symObjAddr: 0xEF0, symBinAddr: 0x100001DD0, symSize: 0x200 }
  - { offsetInCU: 0x85D2, offset: 0x85D2, size: 0x8, addend: 0x0, symName: __ZNK11TaskManager16printTasksByTypeE8TaskType, symObjAddr: 0x10F0, symBinAddr: 0x100001FD0, symSize: 0xA0 }
  - { offsetInCU: 0x864E, offset: 0x864E, size: 0x8, addend: 0x0, symName: '__ZNK3mtm10SortedListI4TaskE6filterIZNK11TaskManager16printTasksByTypeE8TaskTypeE3$_1EES2_T_', symObjAddr: 0x1190, symBinAddr: 0x100002070, symSize: 0x1A0 }
  - { offsetInCU: 0x86E7, offset: 0x86E7, size: 0x8, addend: 0x0, symName: __ZN3mtm10SortedListI4TaskEC1Ev, symObjAddr: 0x1330, symBinAddr: 0x100002210, symSize: 0x20 }
  - { offsetInCU: 0x8710, offset: 0x8710, size: 0x8, addend: 0x0, symName: __ZN3mtm10SortedListI4TaskE6insertERKS1_, symObjAddr: 0x1350, symBinAddr: 0x100002230, symSize: 0x40 }
  - { offsetInCU: 0x8743, offset: 0x8743, size: 0x8, addend: 0x0, symName: __ZN6PersonD2Ev, symObjAddr: 0x1390, symBinAddr: 0x100002270, symSize: 0x30 }
  - { offsetInCU: 0x876E, offset: 0x876E, size: 0x8, addend: 0x0, symName: __ZN3mtm10SortedListI4TaskEaSERKS2_, symObjAddr: 0x13C0, symBinAddr: 0x1000022A0, symSize: 0xA0 }
  - { offsetInCU: 0x87B1, offset: 0x87B1, size: 0x8, addend: 0x0, symName: __ZN3mtm10SortedListI4TaskE8swapListERS2_, symObjAddr: 0x1460, symBinAddr: 0x100002340, symSize: 0x60 }
  - { offsetInCU: 0x87E9, offset: 0x87E9, size: 0x8, addend: 0x0, symName: __ZN3mtm10SortedListI4TaskE4swapIPNS2_14SortedListNodeEEEvRT_S7_, symObjAddr: 0x14C0, symBinAddr: 0x1000023A0, symSize: 0x40 }
  - { offsetInCU: 0x8846, offset: 0x8846, size: 0x8, addend: 0x0, symName: __ZN3mtm10SortedListI4TaskE4swapIiEEvRT_S5_, symObjAddr: 0x1500, symBinAddr: 0x1000023E0, symSize: 0x30 }
  - { offsetInCU: 0x889D, offset: 0x889D, size: 0x8, addend: 0x0, symName: __ZN4TaskD2Ev, symObjAddr: 0x1530, symBinAddr: 0x100002410, symSize: 0x20 }
  - { offsetInCU: 0x88C7, offset: 0x88C7, size: 0x8, addend: 0x0, symName: __ZN4TaskC2ERKS_, symObjAddr: 0x1550, symBinAddr: 0x100002430, symSize: 0x50 }
  - { offsetInCU: 0x88FA, offset: 0x88FA, size: 0x8, addend: 0x0, symName: __ZNSt3__112basic_stringIcNS_11char_traitsIcEENS_9allocatorIcEEEC2B8ue170006ILi0EEEPKc, symObjAddr: 0x15A0, symBinAddr: 0x100002480, symSize: 0x50 }
  - { offsetInCU: 0x893C, offset: 0x893C, size: 0x8, addend: 0x0, symName: __ZNSt3__117__compressed_pairINS_12basic_stringIcNS_11char_traitsIcEENS_9allocatorIcEEE5__repES5_EC1B8ue170006INS_18__default_init_tagESA_EEOT_OT0_, symObjAddr: 0x15F0, symBinAddr: 0x1000024D0, symSize: 0x30 }
  - { offsetInCU: 0x8993, offset: 0x8993, size: 0x8, addend: 0x0, symName: __ZNSt3__111char_traitsIcE6lengthB8ue170006EPKc, symObjAddr: 0x1620, symBinAddr: 0x100002500, symSize: 0x30 }
  - { offsetInCU: 0x89B5, offset: 0x89B5, size: 0x8, addend: 0x0, symName: __ZNSt3__117__compressed_pairINS_12basic_stringIcNS_11char_traitsIcEENS_9allocatorIcEEE5__repES5_EC2B8ue170006INS_18__default_init_tagESA_EEOT_OT0_, symObjAddr: 0x1650, symBinAddr: 0x100002530, symSize: 0x30 }
  - { offsetInCU: 0x8A0B, offset: 0x8A0B, size: 0x8, addend: 0x0, symName: __ZNSt3__122__compressed_pair_elemINS_12basic_stringIcNS_11char_traitsIcEENS_9allocatorIcEEE5__repELi0ELb0EEC2B8ue170006ENS_18__default_init_tagE, symObjAddr: 0x1680, symBinAddr: 0x100002560, symSize: 0x10 }
  - { offsetInCU: 0x8A3E, offset: 0x8A3E, size: 0x8, addend: 0x0, symName: __ZNSt3__122__compressed_pair_elemINS_9allocatorIcEELi1ELb1EEC2B8ue170006ENS_18__default_init_tagE, symObjAddr: 0x1690, symBinAddr: 0x100002570, symSize: 0x20 }
  - { offsetInCU: 0x8A71, offset: 0x8A71, size: 0x8, addend: 0x0, symName: __ZNSt3__19allocatorIcEC2B8ue170006Ev, symObjAddr: 0x16B0, symBinAddr: 0x100002590, symSize: 0x20 }
  - { offsetInCU: 0x8A99, offset: 0x8A99, size: 0x8, addend: 0x0, symName: __ZNSt3__116__non_trivial_ifILb1ENS_9allocatorIcEEEC2B8ue170006Ev, symObjAddr: 0x16D0, symBinAddr: 0x1000025B0, symSize: 0x10 }
  - { offsetInCU: 0x8AC1, offset: 0x8AC1, size: 0x8, addend: 0x0, symName: __ZN3mtm10SortedListI4TaskED2Ev, symObjAddr: 0x1710, symBinAddr: 0x1000025F0, symSize: 0x70 }
  - { offsetInCU: 0x8B23, offset: 0x8B23, size: 0x8, addend: 0x0, symName: __ZN3mtm10SortedListI4TaskE14SortedListNodeD1Ev, symObjAddr: 0x1780, symBinAddr: 0x100002660, symSize: 0x20 }
  - { offsetInCU: 0x8B4B, offset: 0x8B4B, size: 0x8, addend: 0x0, symName: __ZN3mtm10SortedListI4TaskE14SortedListNodeD2Ev, symObjAddr: 0x17A0, symBinAddr: 0x100002680, symSize: 0x50 }
  - { offsetInCU: 0x8B74, offset: 0x8B74, size: 0x8, addend: 0x0, symName: __ZNKSt3__112basic_stringIcNS_11char_traitsIcEENS_9allocatorIcEEE4sizeB8ue170006Ev, symObjAddr: 0x17F0, symBinAddr: 0x1000026D0, symSize: 0x50 }
  - { offsetInCU: 0x8B99, offset: 0x8B99, size: 0x8, addend: 0x0, symName: __ZNKSt3__112basic_stringIcNS_11char_traitsIcEENS_9allocatorIcEEE4dataB8ue170006Ev, symObjAddr: 0x1840, symBinAddr: 0x100002720, symSize: 0x30 }
  - { offsetInCU: 0x8BBE, offset: 0x8BBE, size: 0x8, addend: 0x0, symName: __ZNKSt3__112basic_stringIcNS_11char_traitsIcEENS_9allocatorIcEEE9__is_longB8ue170006Ev, symObjAddr: 0x1870, symBinAddr: 0x100002750, symSize: 0x30 }
  - { offsetInCU: 0x8BE3, offset: 0x8BE3, size: 0x8, addend: 0x0, symName: __ZNSt3__111char_traitsIcE7compareB8ue170006EPKcS3_m, symObjAddr: 0x18A0, symBinAddr: 0x100002780, symSize: 0x30 }
  - { offsetInCU: 0x8C22, offset: 0x8C22, size: 0x8, addend: 0x0, symName: __ZNKSt3__112basic_stringIcNS_11char_traitsIcEENS_9allocatorIcEEE15__get_long_sizeB8ue170006Ev, symObjAddr: 0x18D0, symBinAddr: 0x1000027B0, symSize: 0x20 }
  - { offsetInCU: 0x8C47, offset: 0x8C47, size: 0x8, addend: 0x0, symName: __ZNKSt3__112basic_stringIcNS_11char_traitsIcEENS_9allocatorIcEEE16__get_short_sizeB8ue170006Ev, symObjAddr: 0x18F0, symBinAddr: 0x1000027D0, symSize: 0x30 }
  - { offsetInCU: 0x8C6C, offset: 0x8C6C, size: 0x8, addend: 0x0, symName: __ZNKSt3__117__compressed_pairINS_12basic_stringIcNS_11char_traitsIcEENS_9allocatorIcEEE5__repES5_E5firstB8ue170006Ev, symObjAddr: 0x1920, symBinAddr: 0x100002800, symSize: 0x20 }
  - { offsetInCU: 0x8C91, offset: 0x8C91, size: 0x8, addend: 0x0, symName: __ZNKSt3__122__compressed_pair_elemINS_12basic_stringIcNS_11char_traitsIcEENS_9allocatorIcEEE5__repELi0ELb0EE5__getB8ue170006Ev, symObjAddr: 0x1940, symBinAddr: 0x100002820, symSize: 0x10 }
  - { offsetInCU: 0x8CB6, offset: 0x8CB6, size: 0x8, addend: 0x0, symName: __ZNKSt3__112basic_stringIcNS_11char_traitsIcEENS_9allocatorIcEEE13__get_pointerB8ue170006Ev, symObjAddr: 0x1960, symBinAddr: 0x100002840, symSize: 0x50 }
  - { offsetInCU: 0x8CDB, offset: 0x8CDB, size: 0x8, addend: 0x0, symName: __ZNKSt3__112basic_stringIcNS_11char_traitsIcEENS_9allocatorIcEEE18__get_long_pointerB8ue170006Ev, symObjAddr: 0x19B0, symBinAddr: 0x100002890, symSize: 0x20 }
  - { offsetInCU: 0x8D00, offset: 0x8D00, size: 0x8, addend: 0x0, symName: __ZNKSt3__112basic_stringIcNS_11char_traitsIcEENS_9allocatorIcEEE19__get_short_pointerB8ue170006Ev, symObjAddr: 0x19D0, symBinAddr: 0x1000028B0, symSize: 0x30 }
  - { offsetInCU: 0x8D25, offset: 0x8D25, size: 0x8, addend: 0x0, symName: __ZNSt3__114pointer_traitsIPKcE10pointer_toB8ue170006ERS1_, symObjAddr: 0x1A00, symBinAddr: 0x1000028E0, symSize: 0x10 }
  - { offsetInCU: 0x8D51, offset: 0x8D51, size: 0x8, addend: 0x0, symName: '__ZZN11TaskManager18bumpPriorityByTypeE8TaskTypeiENK3$_0clE4Task', symObjAddr: 0x1A10, symBinAddr: 0x1000028F0, symSize: 0x40 }
  - { offsetInCU: 0x8D89, offset: 0x8D89, size: 0x8, addend: 0x0, symName: __ZNKSt3__19basic_iosIcNS_11char_traitsIcEEE5widenB8ue170006Ec, symObjAddr: 0x1A50, symBinAddr: 0x100002930, symSize: 0x80 }
  - { offsetInCU: 0x8DF6, offset: 0x8DF6, size: 0x8, addend: 0x0, symName: __ZNKSt3__15ctypeIcE5widenB8ue170006Ec, symObjAddr: 0x1B00, symBinAddr: 0x1000029E0, symSize: 0x30 }
  - { offsetInCU: 0x8E29, offset: 0x8E29, size: 0x8, addend: 0x0, symName: __ZN3mtm10SortedListI4TaskE13ConstIteratorC1EPKNS2_14SortedListNodeE, symObjAddr: 0x1B30, symBinAddr: 0x100002A10, symSize: 0x30 }
  - { offsetInCU: 0x8E60, offset: 0x8E60, size: 0x8, addend: 0x0, symName: __ZN3mtm10SortedListI4TaskE13ConstIteratorC2EPKNS2_14SortedListNodeE, symObjAddr: 0x1B60, symBinAddr: 0x100002A40, symSize: 0x20 }
  - { offsetInCU: 0x8E98, offset: 0x8E98, size: 0x8, addend: 0x0, symName: __ZNK3mtm10SortedListI4TaskE14SortedListNode6isTailEv, symObjAddr: 0x1B80, symBinAddr: 0x100002A60, symSize: 0x50 }
  - { offsetInCU: 0x8EBC, offset: 0x8EBC, size: 0x8, addend: 0x0, symName: __ZNSt12out_of_rangeC1B8ue170006EPKc, symObjAddr: 0x1BD0, symBinAddr: 0x100002AB0, symSize: 0x30 }
  - { offsetInCU: 0x8EF2, offset: 0x8EF2, size: 0x8, addend: 0x0, symName: __ZNSt12out_of_rangeC2B8ue170006EPKc, symObjAddr: 0x1C00, symBinAddr: 0x100002AE0, symSize: 0x40 }
  - { offsetInCU: 0x8F32, offset: 0x8F32, size: 0x8, addend: 0x0, symName: '__ZZNK11TaskManager16printTasksByTypeE8TaskTypeENK3$_1clE4Task', symObjAddr: 0x1C40, symBinAddr: 0x100002B20, symSize: 0x40 }
  - { offsetInCU: 0x8F69, offset: 0x8F69, size: 0x8, addend: 0x0, symName: __ZN3mtm10SortedListI4TaskEC2Ev, symObjAddr: 0x1C80, symBinAddr: 0x100002B60, symSize: 0x1A0 }
  - { offsetInCU: 0x8FA6, offset: 0x8FA6, size: 0x8, addend: 0x0, symName: __ZN3mtm10SortedListI4TaskE14SortedListNodeC1Ev, symObjAddr: 0x1E20, symBinAddr: 0x100002D00, symSize: 0x20 }
  - { offsetInCU: 0x8FCE, offset: 0x8FCE, size: 0x8, addend: 0x0, symName: __ZN3mtm10SortedListI4TaskE14SortedListNodeC2Ev, symObjAddr: 0x1E40, symBinAddr: 0x100002D20, symSize: 0x30 }
  - { offsetInCU: 0x8FF7, offset: 0x8FF7, size: 0x8, addend: 0x0, symName: __ZN3mtm10SortedListI4TaskE14SortedListNode6insertERKS1_, symObjAddr: 0x1E70, symBinAddr: 0x100002D50, symSize: 0xD0 }
  - { offsetInCU: 0x9037, offset: 0x9037, size: 0x8, addend: 0x0, symName: __ZN3mtm10SortedListI4TaskE14SortedListNodeC1ES1_, symObjAddr: 0x1F40, symBinAddr: 0x100002E20, symSize: 0x110 }
  - { offsetInCU: 0x9084, offset: 0x9084, size: 0x8, addend: 0x0, symName: __ZN3mtm10SortedListI4TaskE14SortedListNode3addEPS3_, symObjAddr: 0x2050, symBinAddr: 0x100002F30, symSize: 0x90 }
  - { offsetInCU: 0x90B7, offset: 0x90B7, size: 0x8, addend: 0x0, symName: __ZNK3mtm10SortedListI4TaskE14SortedListNode7hasNextEv, symObjAddr: 0x20E0, symBinAddr: 0x100002FC0, symSize: 0x30 }
  - { offsetInCU: 0x90DC, offset: 0x90DC, size: 0x8, addend: 0x0, symName: __ZN3mtm10SortedListI4TaskE14SortedListNode12addImmediateEPS3_, symObjAddr: 0x2110, symBinAddr: 0x100002FF0, symSize: 0x38 }
  - { offsetInCU: 0x297D, offset: 0xBB08, size: 0x8, addend: 0x0, symName: __ZNSt3__124__put_character_sequenceB8ue170006IcNS_11char_traitsIcEEEERNS_13basic_ostreamIT_T0_EES7_PKS4_m, symObjAddr: 0x520, symBinAddr: 0x100003520, symSize: 0x1F0 }
  - { offsetInCU: 0x3FF2, offset: 0xD17D, size: 0x8, addend: 0x0, symName: __ZNSt3__1lsB8ue170006INS_11char_traitsIcEEEERNS_13basic_ostreamIcT_EES6_PKc, symObjAddr: 0x2A0, symBinAddr: 0x1000032D0, symSize: 0x40 }
  - { offsetInCU: 0x4038, offset: 0xD1C3, size: 0x8, addend: 0x0, symName: __ZNSt3__1lsB8ue170006IcNS_11char_traitsIcEENS_9allocatorIcEEEERNS_13basic_ostreamIT_T0_EES9_RKNS_12basic_stringIS6_S7_T1_EE, symObjAddr: 0x2E0, symBinAddr: 0x100003310, symSize: 0x50 }
  - { offsetInCU: 0x4090, offset: 0xD21B, size: 0x8, addend: 0x0, symName: __ZNSt3__116__pad_and_outputB8ue170006IcNS_11char_traitsIcEEEENS_19ostreambuf_iteratorIT_T0_EES6_PKS4_S8_S8_RNS_8ios_baseES4_, symObjAddr: 0x760, symBinAddr: 0x100003730, symSize: 0x220 }
  - { offsetInCU: 0x4161, offset: 0xD2EC, size: 0x8, addend: 0x0, symName: __ZNSt3__112__to_addressB8ue170006IcEEPT_S2_, symObjAddr: 0xC90, symBinAddr: 0x100003B90, symSize: 0x10 }
  - { offsetInCU: 0x62DF, offset: 0xF46A, size: 0x8, addend: 0x0, symName: __ZN4TaskC2Ei8TaskTypeRKNSt3__112basic_stringIcNS1_11char_traitsIcEENS1_9allocatorIcEEEE, symObjAddr: 0x0, symBinAddr: 0x100003030, symSize: 0x80 }
  - { offsetInCU: 0x6333, offset: 0xF4BE, size: 0x8, addend: 0x0, symName: __ZN4TaskC1Ei8TaskTypeRKNSt3__112basic_stringIcNS1_11char_traitsIcEENS1_9allocatorIcEEEE, symObjAddr: 0x80, symBinAddr: 0x1000030B0, symSize: 0x30 }
  - { offsetInCU: 0x6387, offset: 0xF512, size: 0x8, addend: 0x0, symName: __ZN4TaskC2EiRKNSt3__112basic_stringIcNS0_11char_traitsIcEENS0_9allocatorIcEEEE, symObjAddr: 0xB0, symBinAddr: 0x1000030E0, symSize: 0x30 }
  - { offsetInCU: 0x63CD, offset: 0xF558, size: 0x8, addend: 0x0, symName: __ZN4TaskC1EiRKNSt3__112basic_stringIcNS0_11char_traitsIcEENS0_9allocatorIcEEEE, symObjAddr: 0xE0, symBinAddr: 0x100003110, symSize: 0x30 }
  - { offsetInCU: 0x6413, offset: 0xF59E, size: 0x8, addend: 0x0, symName: __ZNK4Task5getIdEv, symObjAddr: 0x110, symBinAddr: 0x100003140, symSize: 0x10 }
  - { offsetInCU: 0x6439, offset: 0xF5C4, size: 0x8, addend: 0x0, symName: __ZN4Task5setIdEi, symObjAddr: 0x120, symBinAddr: 0x100003150, symSize: 0x20 }
  - { offsetInCU: 0x646D, offset: 0xF5F8, size: 0x8, addend: 0x0, symName: __ZNK4Task7getTypeEv, symObjAddr: 0x140, symBinAddr: 0x100003170, symSize: 0x20 }
  - { offsetInCU: 0x6493, offset: 0xF61E, size: 0x8, addend: 0x0, symName: __ZNK4Task14getDescriptionEv, symObjAddr: 0x160, symBinAddr: 0x100003190, symSize: 0x30 }
  - { offsetInCU: 0x64B9, offset: 0xF644, size: 0x8, addend: 0x0, symName: __ZNK4Task11getPriorityEv, symObjAddr: 0x190, symBinAddr: 0x1000031C0, symSize: 0x20 }
  - { offsetInCU: 0x64DF, offset: 0xF66A, size: 0x8, addend: 0x0, symName: __ZlsRNSt3__113basic_ostreamIcNS_11char_traitsIcEEEERK4Task, symObjAddr: 0x1B0, symBinAddr: 0x1000031E0, symSize: 0xF0 }
  - { offsetInCU: 0x6519, offset: 0xF6A4, size: 0x8, addend: 0x0, symName: __Z16taskTypeToString8TaskType, symObjAddr: 0x330, symBinAddr: 0x100003360, symSize: 0x160 }
  - { offsetInCU: 0x6545, offset: 0xF6D0, size: 0x8, addend: 0x0, symName: __ZgtRK4TaskS1_, symObjAddr: 0x490, symBinAddr: 0x1000034C0, symSize: 0x60 }
  - { offsetInCU: 0x65A2, offset: 0xF72D, size: 0x8, addend: 0x0, symName: __ZNKSt3__113basic_ostreamIcNS_11char_traitsIcEEE6sentrycvbB8ue170006Ev, symObjAddr: 0x740, symBinAddr: 0x100003710, symSize: 0x20 }
  - { offsetInCU: 0x65C7, offset: 0xF752, size: 0x8, addend: 0x0, symName: __ZNSt3__119ostreambuf_iteratorIcNS_11char_traitsIcEEEC1B8ue170006ERNS_13basic_ostreamIcS2_EE, symObjAddr: 0x980, symBinAddr: 0x100003950, symSize: 0x30 }
  - { offsetInCU: 0x65FD, offset: 0xF788, size: 0x8, addend: 0x0, symName: __ZNKSt3__18ios_base5flagsB8ue170006Ev, symObjAddr: 0x9B0, symBinAddr: 0x100003980, symSize: 0x20 }
  - { offsetInCU: 0x6624, offset: 0xF7AF, size: 0x8, addend: 0x0, symName: __ZNKSt3__19basic_iosIcNS_11char_traitsIcEEE4fillB8ue170006Ev, symObjAddr: 0x9D0, symBinAddr: 0x1000039A0, symSize: 0x70 }
  - { offsetInCU: 0x664B, offset: 0xF7D6, size: 0x8, addend: 0x0, symName: __ZNKSt3__119ostreambuf_iteratorIcNS_11char_traitsIcEEE6failedB8ue170006Ev, symObjAddr: 0xA40, symBinAddr: 0x100003A10, symSize: 0x20 }
  - { offsetInCU: 0x6670, offset: 0xF7FB, size: 0x8, addend: 0x0, symName: __ZNSt3__19basic_iosIcNS_11char_traitsIcEEE8setstateB8ue170006Ej, symObjAddr: 0xA60, symBinAddr: 0x100003A30, symSize: 0x30 }
  - { offsetInCU: 0x66A4, offset: 0xF82F, size: 0x8, addend: 0x0, symName: __ZNKSt3__18ios_base5widthB8ue170006Ev, symObjAddr: 0xAA0, symBinAddr: 0x100003A60, symSize: 0x20 }
  - { offsetInCU: 0x66CB, offset: 0xF856, size: 0x8, addend: 0x0, symName: __ZNSt3__115basic_streambufIcNS_11char_traitsIcEEE5sputnB8ue170006EPKcl, symObjAddr: 0xAC0, symBinAddr: 0x100003A80, symSize: 0x30 }
  - { offsetInCU: 0x670C, offset: 0xF897, size: 0x8, addend: 0x0, symName: __ZNSt3__112basic_stringIcNS_11char_traitsIcEENS_9allocatorIcEEEC1B8ue170006Emc, symObjAddr: 0xAF0, symBinAddr: 0x100003AB0, symSize: 0x30 }
  - { offsetInCU: 0x6752, offset: 0xF8DD, size: 0x8, addend: 0x0, symName: __ZNSt3__112basic_stringIcNS_11char_traitsIcEENS_9allocatorIcEEE4dataB8ue170006Ev, symObjAddr: 0xB20, symBinAddr: 0x100003AE0, symSize: 0x30 }
  - { offsetInCU: 0x6777, offset: 0xF902, size: 0x8, addend: 0x0, symName: __ZNSt3__18ios_base5widthB8ue170006El, symObjAddr: 0xB50, symBinAddr: 0x100003B10, symSize: 0x30 }
  - { offsetInCU: 0x67BC, offset: 0xF947, size: 0x8, addend: 0x0, symName: __ZNSt3__112basic_stringIcNS_11char_traitsIcEENS_9allocatorIcEEEC2B8ue170006Emc, symObjAddr: 0xB80, symBinAddr: 0x100003B40, symSize: 0x50 }
  - { offsetInCU: 0x6802, offset: 0xF98D, size: 0x8, addend: 0x0, symName: __ZNSt3__112basic_stringIcNS_11char_traitsIcEENS_9allocatorIcEEE13__get_pointerB8ue170006Ev, symObjAddr: 0xCA0, symBinAddr: 0x100003BA0, symSize: 0x50 }
  - { offsetInCU: 0x6827, offset: 0xF9B2, size: 0x8, addend: 0x0, symName: __ZNSt3__112basic_stringIcNS_11char_traitsIcEENS_9allocatorIcEEE18__get_long_pointerB8ue170006Ev, symObjAddr: 0xD20, symBinAddr: 0x100003BF0, symSize: 0x20 }
  - { offsetInCU: 0x684C, offset: 0xF9D7, size: 0x8, addend: 0x0, symName: __ZNSt3__112basic_stringIcNS_11char_traitsIcEENS_9allocatorIcEEE19__get_short_pointerB8ue170006Ev, symObjAddr: 0xD40, symBinAddr: 0x100003C10, symSize: 0x30 }
  - { offsetInCU: 0x6871, offset: 0xF9FC, size: 0x8, addend: 0x0, symName: __ZNSt3__117__compressed_pairINS_12basic_stringIcNS_11char_traitsIcEENS_9allocatorIcEEE5__repES5_E5firstB8ue170006Ev, symObjAddr: 0xDA0, symBinAddr: 0x100003C40, symSize: 0x20 }
  - { offsetInCU: 0x6896, offset: 0xFA21, size: 0x8, addend: 0x0, symName: __ZNSt3__122__compressed_pair_elemINS_12basic_stringIcNS_11char_traitsIcEENS_9allocatorIcEEE5__repELi0ELb0EE5__getB8ue170006Ev, symObjAddr: 0xDC0, symBinAddr: 0x100003C60, symSize: 0x10 }
  - { offsetInCU: 0x68BB, offset: 0xFA46, size: 0x8, addend: 0x0, symName: __ZNSt3__114pointer_traitsIPcE10pointer_toB8ue170006ERc, symObjAddr: 0xDD0, symBinAddr: 0x100003C70, symSize: 0x10 }
  - { offsetInCU: 0x68DE, offset: 0xFA69, size: 0x8, addend: 0x0, symName: __ZNSt3__119ostreambuf_iteratorIcNS_11char_traitsIcEEEC2B8ue170006ERNS_13basic_ostreamIcS2_EE, symObjAddr: 0xDE0, symBinAddr: 0x100003C80, symSize: 0x50 }
  - { offsetInCU: 0x6914, offset: 0xFA9F, size: 0x8, addend: 0x0, symName: __ZNKSt3__19basic_iosIcNS_11char_traitsIcEEE5rdbufB8ue170006Ev, symObjAddr: 0xE30, symBinAddr: 0x100003CD0, symSize: 0x20 }
  - { offsetInCU: 0x693B, offset: 0xFAC6, size: 0x8, addend: 0x0, symName: __ZNKSt3__18ios_base5rdbufB8ue170006Ev, symObjAddr: 0xE50, symBinAddr: 0x100003CF0, symSize: 0x20 }
  - { offsetInCU: 0x6960, offset: 0xFAEB, size: 0x8, addend: 0x0, symName: __ZNSt3__111char_traitsIcE11eq_int_typeB8ue170006Eii, symObjAddr: 0xE70, symBinAddr: 0x100003D10, symSize: 0x20 }
  - { offsetInCU: 0x6993, offset: 0xFB1E, size: 0x8, addend: 0x0, symName: __ZNSt3__111char_traitsIcE3eofB8ue170006Ev, symObjAddr: 0xE90, symBinAddr: 0x100003D30, symSize: 0x10 }
  - { offsetInCU: 0x69A7, offset: 0xFB32, size: 0x8, addend: 0x0, symName: __ZNSt3__18ios_base8setstateB8ue170006Ej, symObjAddr: 0xF80, symBinAddr: 0x100003D40, symSize: 0x30 }
  - { offsetInCU: 0x63D5, offset: 0x15F79, size: 0x8, addend: 0x0, symName: __ZN6PersonC2ERKNSt3__112basic_stringIcNS0_11char_traitsIcEENS0_9allocatorIcEEEE, symObjAddr: 0x0, symBinAddr: 0x100003D70, symSize: 0x60 }
  - { offsetInCU: 0x640D, offset: 0x15FB1, size: 0x8, addend: 0x0, symName: __ZN6PersonC1ERKNSt3__112basic_stringIcNS0_11char_traitsIcEENS0_9allocatorIcEEEE, symObjAddr: 0x80, symBinAddr: 0x100003DD0, symSize: 0x30 }
  - { offsetInCU: 0x6445, offset: 0x15FE9, size: 0x8, addend: 0x0, symName: __ZNK6Person7getNameEv, symObjAddr: 0xB0, symBinAddr: 0x100003E00, symSize: 0x30 }
  - { offsetInCU: 0x646B, offset: 0x1600F, size: 0x8, addend: 0x0, symName: __ZNK6Person8getTasksEv, symObjAddr: 0xE0, symBinAddr: 0x100003E30, symSize: 0x20 }
  - { offsetInCU: 0x6491, offset: 0x16035, size: 0x8, addend: 0x0, symName: __ZN6Person8setTasksERKN3mtm10SortedListI4TaskEE, symObjAddr: 0x100, symBinAddr: 0x100003E50, symSize: 0x30 }
  - { offsetInCU: 0x64C5, offset: 0x16069, size: 0x8, addend: 0x0, symName: __ZN6Person10assignTaskERK4Task, symObjAddr: 0x1D0, symBinAddr: 0x100003E80, symSize: 0x30 }
  - { offsetInCU: 0x64F9, offset: 0x1609D, size: 0x8, addend: 0x0, symName: __ZN6Person12completeTaskEv, symObjAddr: 0x240, symBinAddr: 0x100003EB0, symSize: 0xE0 }
  - { offsetInCU: 0x652D, offset: 0x160D1, size: 0x8, addend: 0x0, symName: __ZNK3mtm10SortedListI4TaskE6lengthEv, symObjAddr: 0x320, symBinAddr: 0x100003F90, symSize: 0x10 }
  - { offsetInCU: 0x6552, offset: 0x160F6, size: 0x8, addend: 0x0, symName: __ZN3mtm10SortedListI4TaskE6removeERKNS2_13ConstIteratorE, symObjAddr: 0x400, symBinAddr: 0x100003FA0, symSize: 0xC0 }
  - { offsetInCU: 0x65C1, offset: 0x16165, size: 0x8, addend: 0x0, symName: __ZNK6Person22getHighestPriorityTaskEv, symObjAddr: 0x4C0, symBinAddr: 0x100004060, symSize: 0xB0 }
  - { offsetInCU: 0x65E7, offset: 0x1618B, size: 0x8, addend: 0x0, symName: __ZlsRNSt3__113basic_ostreamIcNS_11char_traitsIcEEEERK6Person, symObjAddr: 0x570, symBinAddr: 0x100004110, symSize: 0xC0 }
  - { offsetInCU: 0x667C, offset: 0x16220, size: 0x8, addend: 0x0, symName: __ZN3mtm10SortedListI4TaskE10deleteNodeEPNS2_14SortedListNodeE, symObjAddr: 0x11A0, symBinAddr: 0x1000041D0, symSize: 0x50 }
  - { offsetInCU: 0x66AF, offset: 0x16253, size: 0x8, addend: 0x0, symName: __ZN3mtm10SortedListI4TaskE14SortedListNode10deleteNodeEv, symObjAddr: 0x11F0, symBinAddr: 0x100004220, symSize: 0x60 }
  - { offsetInCU: 0x39, offset: 0x162ED, size: 0x8, addend: 0x0, symName: __ZN21ExceptionThrowingType10copy_countE, symObjAddr: 0x46050, symBinAddr: 0x100015118, symSize: 0x0 }
  - { offsetInCU: 0x151, offset: 0x16405, size: 0x8, addend: 0x0, symName: __ZN21ExceptionThrowingType11throw_stateE, symObjAddr: 0x46054, symBinAddr: 0x10001511C, symSize: 0x0 }
  - { offsetInCU: 0x17F, offset: 0x16433, size: 0x8, addend: 0x0, symName: _tests, symObjAddr: 0x109D0, symBinAddr: 0x100015000, symSize: 0x0 }
  - { offsetInCU: 0x1B7, offset: 0x1646B, size: 0x8, addend: 0x0, symName: _tests_names, symObjAddr: 0x10A60, symBinAddr: 0x100015090, symSize: 0x0 }
  - { offsetInCU: 0x39E8, offset: 0x19C9C, size: 0x8, addend: 0x0, symName: __ZNSt3__16copy_nB8ue170006IPKcmPcEENS_9enable_ifIXsr37__has_random_access_iterator_categoryIT_EE5valueET1_E4typeES5_T0_S6_, symObjAddr: 0xDFE0, symBinAddr: 0x100010F20, symSize: 0x40 }
  - { offsetInCU: 0x47C1, offset: 0x1AA75, size: 0x8, addend: 0x0, symName: __ZNSt3__1neB8ue170006IcNS_11char_traitsIcEENS_9allocatorIcEEEEbRKNS_12basic_stringIT_T0_T1_EESB_, symObjAddr: 0x53C0, symBinAddr: 0x100009580, symSize: 0x30 }
  - { offsetInCU: 0x4819, offset: 0x1AACD, size: 0x8, addend: 0x0, symName: __ZNSt3__1gtB8ue170006IcNS_11char_traitsIcEENS_9allocatorIcEEEEbRKNS_12basic_stringIT_T0_T1_EESB_, symObjAddr: 0xC0A0, symBinAddr: 0x10000FB60, symSize: 0x30 }
  - { offsetInCU: 0x4871, offset: 0x1AB25, size: 0x8, addend: 0x0, symName: __ZNSt3__1ltB8ue170006IcNS_11char_traitsIcEENS_9allocatorIcEEEEbRKNS_12basic_stringIT_T0_T1_EESB_, symObjAddr: 0xC120, symBinAddr: 0x10000FBE0, symSize: 0x30 }
  - { offsetInCU: 0x48C9, offset: 0x1AB7D, size: 0x8, addend: 0x0, symName: __ZNSt3__13minB8ue170006ImEERKT_S3_S3_, symObjAddr: 0xC3C0, symBinAddr: 0x10000FDD0, symSize: 0x30 }
  - { offsetInCU: 0x490C, offset: 0x1ABC0, size: 0x8, addend: 0x0, symName: __ZNSt3__13minB8ue170006ImNS_6__lessIvvEEEERKT_S5_S5_T0_, symObjAddr: 0xC560, symBinAddr: 0x10000FE00, symSize: 0x50 }
  - { offsetInCU: 0x49AD, offset: 0x1AC61, size: 0x8, addend: 0x0, symName: __ZNSt3__1neB8ue170006IPcEEbRKNS_11__wrap_iterIT_EES6_, symObjAddr: 0xD280, symBinAddr: 0x1000101C0, symSize: 0x30 }
  - { offsetInCU: 0x49F0, offset: 0x1ACA4, size: 0x8, addend: 0x0, symName: __ZNSt3__1eqB8ue170006IPcEEbRKNS_11__wrap_iterIT_EES6_, symObjAddr: 0xD3C0, symBinAddr: 0x100010300, symSize: 0x40 }
  - { offsetInCU: 0x4A33, offset: 0x1ACE7, size: 0x8, addend: 0x0, symName: __ZNSt3__1plB8ue170006IcNS_11char_traitsIcEENS_9allocatorIcEEEENS_12basic_stringIT_T0_T1_EERKS9_PKS6_, symObjAddr: 0xD660, symBinAddr: 0x1000105A0, symSize: 0x100 }
  - { offsetInCU: 0x4CC2, offset: 0x1AF76, size: 0x8, addend: 0x0, symName: __ZNSt3__120__throw_length_errorB8ue170006EPKc, symObjAddr: 0xDD50, symBinAddr: 0x100010C90, symSize: 0x70 }
  - { offsetInCU: 0x4CED, offset: 0x1AFA1, size: 0x8, addend: 0x0, symName: __ZNSt3__117__libcpp_allocateB8ue170006Emm, symObjAddr: 0xDEE0, symBinAddr: 0x100010E20, symSize: 0x60 }
  - { offsetInCU: 0x4D47, offset: 0x1AFFB, size: 0x8, addend: 0x0, symName: __ZNSt3__124__is_overaligned_for_newB8ue170006Em, symObjAddr: 0xDF40, symBinAddr: 0x100010E80, symSize: 0x20 }
  - { offsetInCU: 0x4D75, offset: 0x1B029, size: 0x8, addend: 0x0, symName: __ZNSt3__121__libcpp_operator_newB8ue170006IJmSt11align_val_tEEEPvDpT_, symObjAddr: 0xDF60, symBinAddr: 0x100010EA0, symSize: 0x30 }
  - { offsetInCU: 0x4DC5, offset: 0x1B079, size: 0x8, addend: 0x0, symName: __ZNSt3__121__libcpp_operator_newB8ue170006IJmEEEPvDpT_, symObjAddr: 0xDF90, symBinAddr: 0x100010ED0, symSize: 0x20 }
  - { offsetInCU: 0x4E00, offset: 0x1B0B4, size: 0x8, addend: 0x0, symName: __ZNSt3__14copyB8ue170006IPKcPcEET0_T_S5_S4_, symObjAddr: 0xE020, symBinAddr: 0x100010F60, symSize: 0x40 }
  - { offsetInCU: 0x4E5A, offset: 0x1B10E, size: 0x8, addend: 0x0, symName: __ZNSt3__16__copyB8ue170006INS_17_ClassicAlgPolicyEPKcS3_PcEENS_4pairIT0_T2_EES6_T1_S7_, symObjAddr: 0xE060, symBinAddr: 0x100010FA0, symSize: 0x40 }
  - { offsetInCU: 0x4EC6, offset: 0x1B17A, size: 0x8, addend: 0x0, symName: __ZNSt3__123__dispatch_copy_or_moveB8ue170006INS_17_ClassicAlgPolicyENS_11__copy_loopIS1_EENS_14__copy_trivialEPKcS6_PcEENS_4pairIT2_T4_EES9_T3_SA_, symObjAddr: 0xE0A0, symBinAddr: 0x100010FE0, symSize: 0x40 }
  - { offsetInCU: 0x4F44, offset: 0x1B1F8, size: 0x8, addend: 0x0, symName: __ZNSt3__121__unwrap_and_dispatchB8ue170006INS_10__overloadINS_11__copy_loopINS_17_ClassicAlgPolicyEEENS_14__copy_trivialEEEPKcS8_PcLi0EEENS_4pairIT0_T2_EESB_T1_SC_, symObjAddr: 0xE0E0, symBinAddr: 0x100011020, symSize: 0xB0 }
  - { offsetInCU: 0x4FD3, offset: 0x1B287, size: 0x8, addend: 0x0, symName: __ZNSt3__114__unwrap_rangeB8ue170006IPKcS2_EENS_4pairIT0_S4_EET_S6_, symObjAddr: 0xE190, symBinAddr: 0x1000110D0, symSize: 0x50 }
  - { offsetInCU: 0x516A, offset: 0x1B41E, size: 0x8, addend: 0x0, symName: __ZNSt3__113__unwrap_iterB8ue170006IPcNS_18__unwrap_iter_implIS1_Lb1EEELi0EEEDTclsrT0_8__unwrapclsr3stdE7declvalIT_EEEES5_, symObjAddr: 0xE220, symBinAddr: 0x100011160, symSize: 0x20 }
  - { offsetInCU: 0x51AE, offset: 0x1B462, size: 0x8, addend: 0x0, symName: __ZNSt3__19make_pairB8ue170006IPKcPcEENS_4pairINS_18__unwrap_ref_decayIT_E4typeENS5_IT0_E4typeEEEOS6_OS9_, symObjAddr: 0xE240, symBinAddr: 0x100011180, symSize: 0x30 }
  - { offsetInCU: 0x51FD, offset: 0x1B4B1, size: 0x8, addend: 0x0, symName: __ZNSt3__114__rewrap_rangeB8ue170006IPKcS2_EET_S3_T0_, symObjAddr: 0xE270, symBinAddr: 0x1000111B0, symSize: 0x30 }
  - { offsetInCU: 0x5249, offset: 0x1B4FD, size: 0x8, addend: 0x0, symName: __ZNSt3__113__rewrap_iterB8ue170006IPcS1_NS_18__unwrap_iter_implIS1_Lb1EEEEET_S4_T0_, symObjAddr: 0xE2A0, symBinAddr: 0x1000111E0, symSize: 0x40 }
  - { offsetInCU: 0x529E, offset: 0x1B552, size: 0x8, addend: 0x0, symName: __ZNSt3__19make_pairB8ue170006IPKcS2_EENS_4pairINS_18__unwrap_ref_decayIT_E4typeENS4_IT0_E4typeEEEOS5_OS8_, symObjAddr: 0xE2E0, symBinAddr: 0x100011220, symSize: 0x30 }
  - { offsetInCU: 0x52ED, offset: 0x1B5A1, size: 0x8, addend: 0x0, symName: __ZNSt3__113__unwrap_iterB8ue170006IPKcNS_18__unwrap_iter_implIS2_Lb1EEELi0EEEDTclsrT0_8__unwrapclsr3stdE7declvalIT_EEEES6_, symObjAddr: 0xE310, symBinAddr: 0x100011250, symSize: 0x20 }
  - { offsetInCU: 0x545A, offset: 0x1B70E, size: 0x8, addend: 0x0, symName: __ZNSt3__119__copy_trivial_implB8ue170006IKccEENS_4pairIPT_PT0_EES4_S4_S6_, symObjAddr: 0xE3B0, symBinAddr: 0x1000112F0, symSize: 0x70 }
  - { offsetInCU: 0x54C2, offset: 0x1B776, size: 0x8, addend: 0x0, symName: __ZNSt3__119__constexpr_memmoveB8ue170006IcKcLi0EEEPT_S3_PT0_NS_15__element_countE, symObjAddr: 0xE420, symBinAddr: 0x100011360, symSize: 0x50 }
  - { offsetInCU: 0x5530, offset: 0x1B7E4, size: 0x8, addend: 0x0, symName: __ZNSt3__19make_pairB8ue170006IRPKcPcEENS_4pairINS_18__unwrap_ref_decayIT_E4typeENS6_IT0_E4typeEEEOS7_OSA_, symObjAddr: 0xE470, symBinAddr: 0x1000113B0, symSize: 0x30 }
  - { offsetInCU: 0x55D3, offset: 0x1B887, size: 0x8, addend: 0x0, symName: __ZNSt3__113__rewrap_iterB8ue170006IPKcS2_NS_18__unwrap_iter_implIS2_Lb1EEEEET_S5_T0_, symObjAddr: 0xE580, symBinAddr: 0x1000114C0, symSize: 0x40 }
  - { offsetInCU: 0x5628, offset: 0x1B8DC, size: 0x8, addend: 0x0, symName: __ZNSt3__16fill_nB8ue170006IPcmcEET_S2_T0_RKT1_, symObjAddr: 0xE640, symBinAddr: 0x100011580, symSize: 0x40 }
  - { offsetInCU: 0x568B, offset: 0x1B93F, size: 0x8, addend: 0x0, symName: __ZNSt3__18__fill_nB8ue170006IPcmcEET_S2_T0_RKT1_, symObjAddr: 0xE680, symBinAddr: 0x1000115C0, symSize: 0x50 }
  - { offsetInCU: 0x56EE, offset: 0x1B9A2, size: 0x8, addend: 0x0, symName: __ZNSt3__121__convert_to_integralB8ue170006Em, symObjAddr: 0xE6D0, symBinAddr: 0x100011610, symSize: 0x10 }
  - { offsetInCU: 0x57F5, offset: 0x1BAA9, size: 0x8, addend: 0x0, symName: __ZSt28__throw_bad_array_new_lengthB8ue170006v, symObjAddr: 0xDEA0, symBinAddr: 0x100010DE0, symSize: 0x40 }
  - { offsetInCU: 0x72CF, offset: 0x1D583, size: 0x8, addend: 0x0, symName: __Z7toupperi, symObjAddr: 0xD2D0, symBinAddr: 0x100010210, symSize: 0x20 }
  - { offsetInCU: 0x8A01, offset: 0x1ECB5, size: 0x8, addend: 0x0, symName: __Z31testTaskManagerPrintTasksByTypev, symObjAddr: 0x0, symBinAddr: 0x100004280, symSize: 0x1440 }
  - { offsetInCU: 0x8D9A, offset: 0x1F04E, size: 0x8, addend: 0x0, symName: __ZN11TaskManagerD1Ev, symObjAddr: 0x1500, symBinAddr: 0x1000056C0, symSize: 0x20 }
  - { offsetInCU: 0x8DC3, offset: 0x1F077, size: 0x8, addend: 0x0, symName: __Z13testListBasicv, symObjAddr: 0x1520, symBinAddr: 0x1000056E0, symSize: 0x520 }
  - { offsetInCU: 0x8E75, offset: 0x1F129, size: 0x8, addend: 0x0, symName: __ZN3mtm10SortedListIiEC1Ev, symObjAddr: 0x1A40, symBinAddr: 0x100005C00, symSize: 0x20 }
  - { offsetInCU: 0x8E9D, offset: 0x1F151, size: 0x8, addend: 0x0, symName: __ZNK3mtm10SortedListIiE6lengthEv, symObjAddr: 0x1A60, symBinAddr: 0x100005C20, symSize: 0x10 }
  - { offsetInCU: 0x8EC2, offset: 0x1F176, size: 0x8, addend: 0x0, symName: __ZN3mtm10SortedListIiE6insertERKi, symObjAddr: 0x1A70, symBinAddr: 0x100005C30, symSize: 0x40 }
  - { offsetInCU: 0x8EF6, offset: 0x1F1AA, size: 0x8, addend: 0x0, symName: __ZN3mtm10SortedListIiEC1ERKS1_, symObjAddr: 0x1AB0, symBinAddr: 0x100005C70, symSize: 0xF0 }
  - { offsetInCU: 0x8F7F, offset: 0x1F233, size: 0x8, addend: 0x0, symName: __ZNK3mtm10SortedListIiE5beginEv, symObjAddr: 0x1BA0, symBinAddr: 0x100005D60, symSize: 0x30 }
  - { offsetInCU: 0x8FA4, offset: 0x1F258, size: 0x8, addend: 0x0, symName: __ZNK3mtm10SortedListIiE13ConstIteratordeEv, symObjAddr: 0x1BD0, symBinAddr: 0x100005D90, symSize: 0xA0 }
  - { offsetInCU: 0x8FC9, offset: 0x1F27D, size: 0x8, addend: 0x0, symName: __ZN3mtm10SortedListIiE13ConstIteratorppEv, symObjAddr: 0x1C70, symBinAddr: 0x100005E30, symSize: 0xA0 }
  - { offsetInCU: 0x8FEE, offset: 0x1F2A2, size: 0x8, addend: 0x0, symName: __ZN3mtm10SortedListIiEaSERKS1_, symObjAddr: 0x1D10, symBinAddr: 0x100005ED0, symSize: 0xA0 }
  - { offsetInCU: 0x9031, offset: 0x1F2E5, size: 0x8, addend: 0x0, symName: __ZN3mtm10SortedListIiED1Ev, symObjAddr: 0x1DB0, symBinAddr: 0x100005F70, symSize: 0x20 }
  - { offsetInCU: 0x9058, offset: 0x1F30C, size: 0x8, addend: 0x0, symName: __Z18testListExceptionsv, symObjAddr: 0x1DD0, symBinAddr: 0x100005F90, symSize: 0x5D0 }
  - { offsetInCU: 0x91BA, offset: 0x1F46E, size: 0x8, addend: 0x0, symName: __ZNK3mtm10SortedListIiE3endEv, symObjAddr: 0x23A0, symBinAddr: 0x100006560, symSize: 0x30 }
  - { offsetInCU: 0x91DF, offset: 0x1F493, size: 0x8, addend: 0x0, symName: __ZN3mtm10SortedListIiE6removeERKNS1_13ConstIteratorE, symObjAddr: 0x23D0, symBinAddr: 0x100006590, symSize: 0xC0 }
  - { offsetInCU: 0x9253, offset: 0x1F507, size: 0x8, addend: 0x0, symName: __ZZ18testListExceptionsvEN13MockExceptionC1Ev, symObjAddr: 0x2490, symBinAddr: 0x100006650, symSize: 0x20 }
  - { offsetInCU: 0x927F, offset: 0x1F533, size: 0x8, addend: 0x0, symName: __ZZ18testListExceptionsvEN13MockExceptionD1Ev, symObjAddr: 0x24B0, symBinAddr: 0x100006670, symSize: 0x20 }
  - { offsetInCU: 0x92AA, offset: 0x1F55E, size: 0x8, addend: 0x0, symName: __Z34testCopyConstructorExceptionSafetyv, symObjAddr: 0x24D0, symBinAddr: 0x100006690, symSize: 0x150 }
  - { offsetInCU: 0x930C, offset: 0x1F5C0, size: 0x8, addend: 0x0, symName: __ZN21ExceptionThrowingTypeC1Ei, symObjAddr: 0x2620, symBinAddr: 0x1000067E0, symSize: 0x30 }
  - { offsetInCU: 0x9342, offset: 0x1F5F6, size: 0x8, addend: 0x0, symName: __ZN21ExceptionThrowingType11zeroCounterEv, symObjAddr: 0x2650, symBinAddr: 0x100006810, symSize: 0x20 }
  - { offsetInCU: 0x9367, offset: 0x1F61B, size: 0x8, addend: 0x0, symName: __ZN21ExceptionThrowingType11changeStateEb, symObjAddr: 0x2670, symBinAddr: 0x100006830, symSize: 0x20 }
  - { offsetInCU: 0x939A, offset: 0x1F64E, size: 0x8, addend: 0x0, symName: __ZN3mtm10SortedListI21ExceptionThrowingTypeEC1Ev, symObjAddr: 0x2690, symBinAddr: 0x100006850, symSize: 0x20 }
  - { offsetInCU: 0x93C2, offset: 0x1F676, size: 0x8, addend: 0x0, symName: __ZN3mtm10SortedListI21ExceptionThrowingTypeE6insertERKS1_, symObjAddr: 0x26B0, symBinAddr: 0x100006870, symSize: 0x40 }
  - { offsetInCU: 0x93F6, offset: 0x1F6AA, size: 0x8, addend: 0x0, symName: __ZN3mtm10SortedListI21ExceptionThrowingTypeEC1ERKS2_, symObjAddr: 0x26F0, symBinAddr: 0x1000068B0, symSize: 0xF0 }
  - { offsetInCU: 0x947F, offset: 0x1F733, size: 0x8, addend: 0x0, symName: __ZN3mtm10SortedListI21ExceptionThrowingTypeED1Ev, symObjAddr: 0x27E0, symBinAddr: 0x1000069A0, symSize: 0x20 }
  - { offsetInCU: 0x94A6, offset: 0x1F75A, size: 0x8, addend: 0x0, symName: __Z15testTaskManagerv, symObjAddr: 0x2800, symBinAddr: 0x1000069C0, symSize: 0x6A0 }
  - { offsetInCU: 0x9525, offset: 0x1F7D9, size: 0x8, addend: 0x0, symName: __Z25testTaskManagerAssignTaskv, symObjAddr: 0x2EA0, symBinAddr: 0x100007060, symSize: 0x11B0 }
  - { offsetInCU: 0x9674, offset: 0x1F928, size: 0x8, addend: 0x0, symName: __Z37testAssignmentOperatorExceptionSafetyv, symObjAddr: 0x4050, symBinAddr: 0x100008210, symSize: 0x170 }
  - { offsetInCU: 0x96D6, offset: 0x1F98A, size: 0x8, addend: 0x0, symName: __ZN3mtm10SortedListI21ExceptionThrowingTypeEaSERKS2_, symObjAddr: 0x41C0, symBinAddr: 0x100008380, symSize: 0xA0 }
  - { offsetInCU: 0x9718, offset: 0x1F9CC, size: 0x8, addend: 0x0, symName: __Z29testDeleteFirstElementOfEmptyv, symObjAddr: 0x4260, symBinAddr: 0x100008420, symSize: 0x120 }
  - { offsetInCU: 0x9763, offset: 0x1FA17, size: 0x8, addend: 0x0, symName: __Z33testDuplicateElementsArePossible1v, symObjAddr: 0x4380, symBinAddr: 0x100008540, symSize: 0x680 }
  - { offsetInCU: 0x9874, offset: 0x1FB28, size: 0x8, addend: 0x0, symName: __ZNK3mtm10SortedListIiE13ConstIteratorneERKS2_, symObjAddr: 0x4A00, symBinAddr: 0x100008BC0, symSize: 0x30 }
  - { offsetInCU: 0x98A7, offset: 0x1FB5B, size: 0x8, addend: 0x0, symName: __Z33testDuplicateElementsArePossible2v, symObjAddr: 0x4A30, symBinAddr: 0x100008BF0, symSize: 0x800 }
  - { offsetInCU: 0x99B8, offset: 0x1FC6C, size: 0x8, addend: 0x0, symName: __ZN3mtm10SortedListINSt3__112basic_stringIcNS1_11char_traitsIcEENS1_9allocatorIcEEEEEC1Ev, symObjAddr: 0x5230, symBinAddr: 0x1000093F0, symSize: 0x20 }
  - { offsetInCU: 0x99E0, offset: 0x1FC94, size: 0x8, addend: 0x0, symName: __ZNK3mtm10SortedListINSt3__112basic_stringIcNS1_11char_traitsIcEENS1_9allocatorIcEEEEE6lengthEv, symObjAddr: 0x5250, symBinAddr: 0x100009410, symSize: 0x10 }
  - { offsetInCU: 0x9A05, offset: 0x1FCB9, size: 0x8, addend: 0x0, symName: __ZN3mtm10SortedListINSt3__112basic_stringIcNS1_11char_traitsIcEENS1_9allocatorIcEEEEE6insertERKS7_, symObjAddr: 0x5260, symBinAddr: 0x100009420, symSize: 0x40 }
  - { offsetInCU: 0x9A39, offset: 0x1FCED, size: 0x8, addend: 0x0, symName: __ZN3mtm10SortedListINSt3__112basic_stringIcNS1_11char_traitsIcEENS1_9allocatorIcEEEEEC1ERKS8_, symObjAddr: 0x52A0, symBinAddr: 0x100009460, symSize: 0xF0 }
  - { offsetInCU: 0x9AC2, offset: 0x1FD76, size: 0x8, addend: 0x0, symName: __ZNK3mtm10SortedListINSt3__112basic_stringIcNS1_11char_traitsIcEENS1_9allocatorIcEEEEE5beginEv, symObjAddr: 0x5390, symBinAddr: 0x100009550, symSize: 0x30 }
  - { offsetInCU: 0x9AE7, offset: 0x1FD9B, size: 0x8, addend: 0x0, symName: __ZNK3mtm10SortedListINSt3__112basic_stringIcNS1_11char_traitsIcEENS1_9allocatorIcEEEEE13ConstIteratordeEv, symObjAddr: 0x53F0, symBinAddr: 0x1000095B0, symSize: 0xA0 }
  - { offsetInCU: 0x9B0C, offset: 0x1FDC0, size: 0x8, addend: 0x0, symName: __ZN3mtm10SortedListINSt3__112basic_stringIcNS1_11char_traitsIcEENS1_9allocatorIcEEEEE13ConstIteratorppEv, symObjAddr: 0x5490, symBinAddr: 0x100009650, symSize: 0xA0 }
  - { offsetInCU: 0x9B31, offset: 0x1FDE5, size: 0x8, addend: 0x0, symName: __ZN3mtm10SortedListINSt3__112basic_stringIcNS1_11char_traitsIcEENS1_9allocatorIcEEEEEaSERKS8_, symObjAddr: 0x5530, symBinAddr: 0x1000096F0, symSize: 0xA0 }
  - { offsetInCU: 0x9B74, offset: 0x1FE28, size: 0x8, addend: 0x0, symName: __ZNK3mtm10SortedListINSt3__112basic_stringIcNS1_11char_traitsIcEENS1_9allocatorIcEEEEE3endEv, symObjAddr: 0x55D0, symBinAddr: 0x100009790, symSize: 0x30 }
  - { offsetInCU: 0x9B99, offset: 0x1FE4D, size: 0x8, addend: 0x0, symName: __ZNK3mtm10SortedListINSt3__112basic_stringIcNS1_11char_traitsIcEENS1_9allocatorIcEEEEE13ConstIteratorneERKS9_, symObjAddr: 0x5600, symBinAddr: 0x1000097C0, symSize: 0x30 }
  - { offsetInCU: 0x9BCD, offset: 0x1FE81, size: 0x8, addend: 0x0, symName: __ZN3mtm10SortedListINSt3__112basic_stringIcNS1_11char_traitsIcEENS1_9allocatorIcEEEEED1Ev, symObjAddr: 0x5680, symBinAddr: 0x1000097F0, symSize: 0x20 }
  - { offsetInCU: 0x9BF4, offset: 0x1FEA8, size: 0x8, addend: 0x0, symName: __Z21testMemoryIndependentv, symObjAddr: 0x56A0, symBinAddr: 0x100009810, symSize: 0x1E0 }
  - { offsetInCU: 0x9C32, offset: 0x1FEE6, size: 0x8, addend: 0x0, symName: __Z9printListIiEvRKN3mtm10SortedListIT_EERNSt3__113basic_ostreamIcNS6_11char_traitsIcEEEE, symObjAddr: 0x58C0, symBinAddr: 0x1000099F0, symSize: 0xA0 }
  - { offsetInCU: 0x9C8D, offset: 0x1FF41, size: 0x8, addend: 0x0, symName: __Z28testsBumpPriorityByTypeRangev, symObjAddr: 0x5960, symBinAddr: 0x100009A90, symSize: 0x860 }
  - { offsetInCU: 0x9CBC, offset: 0x1FF70, size: 0x8, addend: 0x0, symName: __Z33testAssignOperatorExceptionSafetyv, symObjAddr: 0x61C0, symBinAddr: 0x10000A2F0, symSize: 0x340 }
  - { offsetInCU: 0x9D45, offset: 0x1FFF9, size: 0x8, addend: 0x0, symName: __ZNK3mtm10SortedListI21ExceptionThrowingTypeE6lengthEv, symObjAddr: 0x6500, symBinAddr: 0x10000A630, symSize: 0x10 }
  - { offsetInCU: 0x9D6A, offset: 0x2001E, size: 0x8, addend: 0x0, symName: __ZNK3mtm10SortedListI21ExceptionThrowingTypeE5beginEv, symObjAddr: 0x6510, symBinAddr: 0x10000A640, symSize: 0x30 }
  - { offsetInCU: 0x9D8F, offset: 0x20043, size: 0x8, addend: 0x0, symName: __ZNK3mtm10SortedListI21ExceptionThrowingTypeE13ConstIteratordeEv, symObjAddr: 0x6540, symBinAddr: 0x10000A670, symSize: 0xA0 }
  - { offsetInCU: 0x9DB4, offset: 0x20068, size: 0x8, addend: 0x0, symName: __ZNK21ExceptionThrowingType8getValueEv, symObjAddr: 0x65E0, symBinAddr: 0x10000A710, symSize: 0x10 }
  - { offsetInCU: 0x9DD8, offset: 0x2008C, size: 0x8, addend: 0x0, symName: __Z20testOperatorChainingv, symObjAddr: 0x6600, symBinAddr: 0x10000A720, symSize: 0x780 }
  - { offsetInCU: 0x9F4F, offset: 0x20203, size: 0x8, addend: 0x0, symName: '__ZNK3mtm10SortedListINSt3__112basic_stringIcNS1_11char_traitsIcEENS1_9allocatorIcEEEEE6filterIZ20testOperatorChainingvE3$_0EES8_T_', symObjAddr: 0x6D80, symBinAddr: 0x10000AEA0, symSize: 0x140 }
  - { offsetInCU: 0x9FE9, offset: 0x2029D, size: 0x8, addend: 0x0, symName: __Z9printListINSt3__112basic_stringIcNS0_11char_traitsIcEENS0_9allocatorIcEEEEEvRKN3mtm10SortedListIT_EERNS0_13basic_ostreamIcS3_EE, symObjAddr: 0x6EC0, symBinAddr: 0x10000AFE0, symSize: 0xA0 }
  - { offsetInCU: 0xA045, offset: 0x202F9, size: 0x8, addend: 0x0, symName: '__ZNK3mtm10SortedListINSt3__112basic_stringIcNS1_11char_traitsIcEENS1_9allocatorIcEEEEE5applyIZ20testOperatorChainingvE3$_1EES8_T_', symObjAddr: 0x6F60, symBinAddr: 0x10000B080, symSize: 0x1B0 }
  - { offsetInCU: 0xA0DF, offset: 0x20393, size: 0x8, addend: 0x0, symName: '__ZNK3mtm10SortedListINSt3__112basic_stringIcNS1_11char_traitsIcEENS1_9allocatorIcEEEEE6filterIZ20testOperatorChainingvE3$_2EES8_T_', symObjAddr: 0x7110, symBinAddr: 0x10000B230, symSize: 0x140 }
  - { offsetInCU: 0xA179, offset: 0x2042D, size: 0x8, addend: 0x0, symName: '__ZNK3mtm10SortedListINSt3__112basic_stringIcNS1_11char_traitsIcEENS1_9allocatorIcEEEEE5applyIZ20testOperatorChainingvE3$_3EES8_T_', symObjAddr: 0x7250, symBinAddr: 0x10000B370, symSize: 0x1B0 }
  - { offsetInCU: 0xA213, offset: 0x204C7, size: 0x8, addend: 0x0, symName: '__ZNK3mtm10SortedListINSt3__112basic_stringIcNS1_11char_traitsIcEENS1_9allocatorIcEEEEE6filterIZ20testOperatorChainingvE3$_4EES8_T_', symObjAddr: 0x7400, symBinAddr: 0x10000B520, symSize: 0x140 }
  - { offsetInCU: 0xA2AD, offset: 0x20561, size: 0x8, addend: 0x0, symName: '__ZNK3mtm10SortedListINSt3__112basic_stringIcNS1_11char_traitsIcEENS1_9allocatorIcEEEEE5applyIZ20testOperatorChainingvE3$_5EES8_T_', symObjAddr: 0x7540, symBinAddr: 0x10000B660, symSize: 0x1B0 }
  - { offsetInCU: 0xA347, offset: 0x205FB, size: 0x8, addend: 0x0, symName: '__ZNK3mtm10SortedListINSt3__112basic_stringIcNS1_11char_traitsIcEENS1_9allocatorIcEEEEE5applyIZ20testOperatorChainingvE3$_6EES8_T_', symObjAddr: 0x76F0, symBinAddr: 0x10000B810, symSize: 0x1B0 }
  - { offsetInCU: 0xA3E1, offset: 0x20695, size: 0x8, addend: 0x0, symName: '__ZNK3mtm10SortedListINSt3__112basic_stringIcNS1_11char_traitsIcEENS1_9allocatorIcEEEEE5applyIZ20testOperatorChainingvE3$_7EES8_T_', symObjAddr: 0x78A0, symBinAddr: 0x10000B9C0, symSize: 0x1B0 }
  - { offsetInCU: 0xA47A, offset: 0x2072E, size: 0x8, addend: 0x0, symName: __Z16testCompleteTaskv, symObjAddr: 0x7A50, symBinAddr: 0x10000BB70, symSize: 0x910 }
  - { offsetInCU: 0xA4B9, offset: 0x2076D, size: 0x8, addend: 0x0, symName: __Z27testTaskManagerPrintMethodsv, symObjAddr: 0x8360, symBinAddr: 0x10000C480, symSize: 0xC90 }
  - { offsetInCU: 0xA4E8, offset: 0x2079C, size: 0x8, addend: 0x0, symName: __Z33testComplexAssignFilterOperationsv, symObjAddr: 0x8FF0, symBinAddr: 0x10000D110, symSize: 0xAC0 }
  - { offsetInCU: 0xA69B, offset: 0x2094F, size: 0x8, addend: 0x0, symName: __Z21printListWithNewlinesI4TaskEvRKN3mtm10SortedListIT_EERNSt3__113basic_ostreamIcNS7_11char_traitsIcEEEE, symObjAddr: 0x9B10, symBinAddr: 0x10000DBD0, symSize: 0xA0 }
  - { offsetInCU: 0xA6F7, offset: 0x209AB, size: 0x8, addend: 0x0, symName: '__ZNK3mtm10SortedListI4TaskE5applyIZ33testComplexAssignFilterOperationsvE3$_8EES2_T_', symObjAddr: 0x9BB0, symBinAddr: 0x10000DC70, symSize: 0x180 }
  - { offsetInCU: 0xA791, offset: 0x20A45, size: 0x8, addend: 0x0, symName: '__ZNK3mtm10SortedListI4TaskE5applyIZ33testComplexAssignFilterOperationsvE3$_9EES2_T_', symObjAddr: 0x9D30, symBinAddr: 0x10000DDF0, symSize: 0x180 }
  - { offsetInCU: 0xA82B, offset: 0x20ADF, size: 0x8, addend: 0x0, symName: '__ZNK3mtm10SortedListI4TaskE6filterIZ33testComplexAssignFilterOperationsvE4$_10EES2_T_', symObjAddr: 0x9EB0, symBinAddr: 0x10000DF70, symSize: 0x160 }
  - { offsetInCU: 0xA8C5, offset: 0x20B79, size: 0x8, addend: 0x0, symName: '__ZNK3mtm10SortedListI4TaskE6filterIZ33testComplexAssignFilterOperationsvE4$_11EES2_T_', symObjAddr: 0xA010, symBinAddr: 0x10000E0D0, symSize: 0x160 }
  - { offsetInCU: 0xA95F, offset: 0x20C13, size: 0x8, addend: 0x0, symName: _main, symObjAddr: 0xA370, symBinAddr: 0x10000E230, symSize: 0x280 }
  - { offsetInCU: 0xA9D4, offset: 0x20C88, size: 0x8, addend: 0x0, symName: __ZN11TaskManagerD2Ev, symObjAddr: 0xA610, symBinAddr: 0x10000E4B0, symSize: 0x50 }
  - { offsetInCU: 0xA9FE, offset: 0x20CB2, size: 0x8, addend: 0x0, symName: __ZZ18testListExceptionsvEN13MockExceptionC2Ev, symObjAddr: 0xA6B0, symBinAddr: 0x10000E500, symSize: 0x40 }
  - { offsetInCU: 0xAA2A, offset: 0x20CDE, size: 0x8, addend: 0x0, symName: __ZNSt9exceptionC2B8ue170006Ev, symObjAddr: 0xA6F0, symBinAddr: 0x10000E540, symSize: 0x20 }
  - { offsetInCU: 0xAA52, offset: 0x20D06, size: 0x8, addend: 0x0, symName: __ZZ18testListExceptionsvEN13MockExceptionD0Ev, symObjAddr: 0xA710, symBinAddr: 0x10000E560, symSize: 0x30 }
  - { offsetInCU: 0xAA7E, offset: 0x20D32, size: 0x8, addend: 0x0, symName: __ZZ18testListExceptionsvEN13MockExceptionD2Ev, symObjAddr: 0xA740, symBinAddr: 0x10000E590, symSize: 0x20 }
  - { offsetInCU: 0xAAAA, offset: 0x20D5E, size: 0x8, addend: 0x0, symName: __ZN21ExceptionThrowingTypeC2Ei, symObjAddr: 0xA760, symBinAddr: 0x10000E5B0, symSize: 0x20 }
  - { offsetInCU: 0xAAE5, offset: 0x20D99, size: 0x8, addend: 0x0, symName: __ZN3mtm10SortedListIiEC2Ev, symObjAddr: 0xAAA0, symBinAddr: 0x10000E5D0, symSize: 0x1A0 }
  - { offsetInCU: 0xAB22, offset: 0x20DD6, size: 0x8, addend: 0x0, symName: __ZN3mtm10SortedListIiE14SortedListNodeC1Ev, symObjAddr: 0xAC40, symBinAddr: 0x10000E770, symSize: 0x20 }
  - { offsetInCU: 0xAB4A, offset: 0x20DFE, size: 0x8, addend: 0x0, symName: __ZN3mtm10SortedListIiE14SortedListNodeD1Ev, symObjAddr: 0xAC60, symBinAddr: 0x10000E790, symSize: 0x20 }
  - { offsetInCU: 0xAB72, offset: 0x20E26, size: 0x8, addend: 0x0, symName: __ZN3mtm10SortedListIiE14SortedListNodeC2Ev, symObjAddr: 0xAC80, symBinAddr: 0x10000E7B0, symSize: 0x30 }
  - { offsetInCU: 0xAB9A, offset: 0x20E4E, size: 0x8, addend: 0x0, symName: __ZN3mtm10SortedListIiE14SortedListNodeD2Ev, symObjAddr: 0xACB0, symBinAddr: 0x10000E7E0, symSize: 0x40 }
  - { offsetInCU: 0xABC2, offset: 0x20E76, size: 0x8, addend: 0x0, symName: __ZN3mtm10SortedListIiED2Ev, symObjAddr: 0xACF0, symBinAddr: 0x10000E820, symSize: 0x70 }
  - { offsetInCU: 0xAC24, offset: 0x20ED8, size: 0x8, addend: 0x0, symName: __ZN3mtm10SortedListIiE14SortedListNode6insertERKi, symObjAddr: 0xAD60, symBinAddr: 0x10000E890, symSize: 0x80 }
  - { offsetInCU: 0xAC65, offset: 0x20F19, size: 0x8, addend: 0x0, symName: __ZN3mtm10SortedListIiE14SortedListNodeC1Ei, symObjAddr: 0xADE0, symBinAddr: 0x10000E910, symSize: 0xE0 }
  - { offsetInCU: 0xACB0, offset: 0x20F64, size: 0x8, addend: 0x0, symName: __ZN3mtm10SortedListIiE14SortedListNode3addEPS2_, symObjAddr: 0xAEC0, symBinAddr: 0x10000E9F0, symSize: 0x80 }
  - { offsetInCU: 0xACE3, offset: 0x20F97, size: 0x8, addend: 0x0, symName: __ZNK3mtm10SortedListIiE14SortedListNode7hasNextEv, symObjAddr: 0xAF40, symBinAddr: 0x10000EA70, symSize: 0x30 }
  - { offsetInCU: 0xAD08, offset: 0x20FBC, size: 0x8, addend: 0x0, symName: __ZN3mtm10SortedListIiE14SortedListNode12addImmediateEPS2_, symObjAddr: 0xAF70, symBinAddr: 0x10000EAA0, symSize: 0x40 }
  - { offsetInCU: 0xAD3B, offset: 0x20FEF, size: 0x8, addend: 0x0, symName: __ZNK3mtm10SortedListIiE14SortedListNode6isTailEv, symObjAddr: 0xAFB0, symBinAddr: 0x10000EAE0, symSize: 0x50 }
  - { offsetInCU: 0xAD60, offset: 0x21014, size: 0x8, addend: 0x0, symName: __ZN3mtm10SortedListIiE13ConstIteratorC1EPKNS1_14SortedListNodeE, symObjAddr: 0xB000, symBinAddr: 0x10000EB30, symSize: 0x30 }
  - { offsetInCU: 0xAD97, offset: 0x2104B, size: 0x8, addend: 0x0, symName: __ZN3mtm10SortedListIiE13ConstIteratorC2EPKNS1_14SortedListNodeE, symObjAddr: 0xB030, symBinAddr: 0x10000EB60, symSize: 0x20 }
  - { offsetInCU: 0xADCE, offset: 0x21082, size: 0x8, addend: 0x0, symName: __ZN3mtm10SortedListIiE8swapListERS1_, symObjAddr: 0xB0C0, symBinAddr: 0x10000EB80, symSize: 0x60 }
  - { offsetInCU: 0xAE06, offset: 0x210BA, size: 0x8, addend: 0x0, symName: __ZN3mtm10SortedListIiE4swapIPNS1_14SortedListNodeEEEvRT_S6_, symObjAddr: 0xB120, symBinAddr: 0x10000EBE0, symSize: 0x40 }
  - { offsetInCU: 0xAE63, offset: 0x21117, size: 0x8, addend: 0x0, symName: __ZN3mtm10SortedListIiE4swapIiEEvRT_S4_, symObjAddr: 0xB160, symBinAddr: 0x10000EC20, symSize: 0x30 }
  - { offsetInCU: 0xAEBB, offset: 0x2116F, size: 0x8, addend: 0x0, symName: __ZN3mtm10SortedListIiE10deleteNodeEPNS1_14SortedListNodeE, symObjAddr: 0xB190, symBinAddr: 0x10000EC50, symSize: 0x50 }
  - { offsetInCU: 0xAEEE, offset: 0x211A2, size: 0x8, addend: 0x0, symName: __ZN3mtm10SortedListIiE14SortedListNode10deleteNodeEv, symObjAddr: 0xB1E0, symBinAddr: 0x10000ECA0, symSize: 0x60 }
  - { offsetInCU: 0xAF13, offset: 0x211C7, size: 0x8, addend: 0x0, symName: __ZN3mtm10SortedListI21ExceptionThrowingTypeEC2Ev, symObjAddr: 0xB240, symBinAddr: 0x10000ED00, symSize: 0x1A0 }
  - { offsetInCU: 0xAF50, offset: 0x21204, size: 0x8, addend: 0x0, symName: __ZN3mtm10SortedListI21ExceptionThrowingTypeE14SortedListNodeC1Ev, symObjAddr: 0xB3E0, symBinAddr: 0x10000EEA0, symSize: 0x20 }
  - { offsetInCU: 0xAF78, offset: 0x2122C, size: 0x8, addend: 0x0, symName: __ZN3mtm10SortedListI21ExceptionThrowingTypeE14SortedListNodeD1Ev, symObjAddr: 0xB400, symBinAddr: 0x10000EEC0, symSize: 0x20 }
  - { offsetInCU: 0xAFA0, offset: 0x21254, size: 0x8, addend: 0x0, symName: __ZN3mtm10SortedListI21ExceptionThrowingTypeE14SortedListNodeC2Ev, symObjAddr: 0xB420, symBinAddr: 0x10000EEE0, symSize: 0x30 }
  - { offsetInCU: 0xAFC8, offset: 0x2127C, size: 0x8, addend: 0x0, symName: __ZN3mtm10SortedListI21ExceptionThrowingTypeE14SortedListNodeD2Ev, symObjAddr: 0xB450, symBinAddr: 0x10000EF10, symSize: 0x40 }
  - { offsetInCU: 0xAFF0, offset: 0x212A4, size: 0x8, addend: 0x0, symName: __ZN3mtm10SortedListI21ExceptionThrowingTypeED2Ev, symObjAddr: 0xB490, symBinAddr: 0x10000EF50, symSize: 0x70 }
  - { offsetInCU: 0xB052, offset: 0x21306, size: 0x8, addend: 0x0, symName: __ZN3mtm10SortedListI21ExceptionThrowingTypeE14SortedListNode6insertERKS1_, symObjAddr: 0xB500, symBinAddr: 0x10000EFC0, symSize: 0x90 }
  - { offsetInCU: 0xB093, offset: 0x21347, size: 0x8, addend: 0x0, symName: __ZN21ExceptionThrowingTypeC1ERKS_, symObjAddr: 0xB590, symBinAddr: 0x10000F050, symSize: 0x30 }
  - { offsetInCU: 0xB0C9, offset: 0x2137D, size: 0x8, addend: 0x0, symName: __ZN3mtm10SortedListI21ExceptionThrowingTypeE14SortedListNodeC1ES1_, symObjAddr: 0xB5C0, symBinAddr: 0x10000F080, symSize: 0x110 }
  - { offsetInCU: 0xB115, offset: 0x213C9, size: 0x8, addend: 0x0, symName: __ZN3mtm10SortedListI21ExceptionThrowingTypeE14SortedListNode3addEPS3_, symObjAddr: 0xB6D0, symBinAddr: 0x10000F190, symSize: 0x90 }
  - { offsetInCU: 0xB148, offset: 0x213FC, size: 0x8, addend: 0x0, symName: __ZN21ExceptionThrowingTypeC2ERKS_, symObjAddr: 0xB760, symBinAddr: 0x10000F220, symSize: 0x80 }
  - { offsetInCU: 0xB17E, offset: 0x21432, size: 0x8, addend: 0x0, symName: __ZNK3mtm10SortedListI21ExceptionThrowingTypeE14SortedListNode7hasNextEv, symObjAddr: 0xB7E0, symBinAddr: 0x10000F2A0, symSize: 0x30 }
  - { offsetInCU: 0xB1A3, offset: 0x21457, size: 0x8, addend: 0x0, symName: __ZN3mtm10SortedListI21ExceptionThrowingTypeE14SortedListNode12addImmediateEPS3_, symObjAddr: 0xB810, symBinAddr: 0x10000F2D0, symSize: 0x40 }
  - { offsetInCU: 0xB1D6, offset: 0x2148A, size: 0x8, addend: 0x0, symName: __ZNK21ExceptionThrowingTypegtERKS_, symObjAddr: 0xB850, symBinAddr: 0x10000F310, symSize: 0x30 }
  - { offsetInCU: 0xB209, offset: 0x214BD, size: 0x8, addend: 0x0, symName: __ZNK3mtm10SortedListI21ExceptionThrowingTypeE14SortedListNode6isTailEv, symObjAddr: 0xB880, symBinAddr: 0x10000F340, symSize: 0x50 }
  - { offsetInCU: 0xB22E, offset: 0x214E2, size: 0x8, addend: 0x0, symName: __ZNK3mtm10SortedListI21ExceptionThrowingTypeE3endEv, symObjAddr: 0xB8D0, symBinAddr: 0x10000F390, symSize: 0x30 }
  - { offsetInCU: 0xB253, offset: 0x21507, size: 0x8, addend: 0x0, symName: __ZNK3mtm10SortedListI21ExceptionThrowingTypeE13ConstIteratorneERKS3_, symObjAddr: 0xB900, symBinAddr: 0x10000F3C0, symSize: 0x30 }
  - { offsetInCU: 0xB287, offset: 0x2153B, size: 0x8, addend: 0x0, symName: __ZN3mtm10SortedListI21ExceptionThrowingTypeE13ConstIteratorppEv, symObjAddr: 0xB930, symBinAddr: 0x10000F3F0, symSize: 0xA0 }
  - { offsetInCU: 0xB2AC, offset: 0x21560, size: 0x8, addend: 0x0, symName: __ZN3mtm10SortedListI21ExceptionThrowingTypeE13ConstIteratorC1EPKNS2_14SortedListNodeE, symObjAddr: 0xB9D0, symBinAddr: 0x10000F490, symSize: 0x30 }
  - { offsetInCU: 0xB2E3, offset: 0x21597, size: 0x8, addend: 0x0, symName: __ZN3mtm10SortedListI21ExceptionThrowingTypeE13ConstIteratorC2EPKNS2_14SortedListNodeE, symObjAddr: 0xBA00, symBinAddr: 0x10000F4C0, symSize: 0x20 }
  - { offsetInCU: 0xB31A, offset: 0x215CE, size: 0x8, addend: 0x0, symName: __ZN3mtm10SortedListI21ExceptionThrowingTypeE8swapListERS2_, symObjAddr: 0xBA20, symBinAddr: 0x10000F4E0, symSize: 0x60 }
  - { offsetInCU: 0xB352, offset: 0x21606, size: 0x8, addend: 0x0, symName: __ZN3mtm10SortedListI21ExceptionThrowingTypeE4swapIPNS2_14SortedListNodeEEEvRT_S7_, symObjAddr: 0xBA80, symBinAddr: 0x10000F540, symSize: 0x40 }
  - { offsetInCU: 0xB3AA, offset: 0x2165E, size: 0x8, addend: 0x0, symName: __ZN3mtm10SortedListI21ExceptionThrowingTypeE4swapIiEEvRT_S5_, symObjAddr: 0xBAC0, symBinAddr: 0x10000F580, symSize: 0x30 }
  - { offsetInCU: 0xB402, offset: 0x216B6, size: 0x8, addend: 0x0, symName: __ZN3mtm10SortedListINSt3__112basic_stringIcNS1_11char_traitsIcEENS1_9allocatorIcEEEEEC2Ev, symObjAddr: 0xBAF0, symBinAddr: 0x10000F5B0, symSize: 0x1A0 }
  - { offsetInCU: 0xB43F, offset: 0x216F3, size: 0x8, addend: 0x0, symName: __ZN3mtm10SortedListINSt3__112basic_stringIcNS1_11char_traitsIcEENS1_9allocatorIcEEEEE14SortedListNodeC1Ev, symObjAddr: 0xBC90, symBinAddr: 0x10000F750, symSize: 0x20 }
  - { offsetInCU: 0xB467, offset: 0x2171B, size: 0x8, addend: 0x0, symName: __ZN3mtm10SortedListINSt3__112basic_stringIcNS1_11char_traitsIcEENS1_9allocatorIcEEEEE14SortedListNodeD1Ev, symObjAddr: 0xBCB0, symBinAddr: 0x10000F770, symSize: 0x20 }
  - { offsetInCU: 0xB48F, offset: 0x21743, size: 0x8, addend: 0x0, symName: __ZN3mtm10SortedListINSt3__112basic_stringIcNS1_11char_traitsIcEENS1_9allocatorIcEEEEE14SortedListNodeC2Ev, symObjAddr: 0xBCD0, symBinAddr: 0x10000F790, symSize: 0x30 }
  - { offsetInCU: 0xB4B7, offset: 0x2176B, size: 0x8, addend: 0x0, symName: __ZN3mtm10SortedListINSt3__112basic_stringIcNS1_11char_traitsIcEENS1_9allocatorIcEEEEE14SortedListNodeD2Ev, symObjAddr: 0xBD00, symBinAddr: 0x10000F7C0, symSize: 0x50 }
  - { offsetInCU: 0xB4DF, offset: 0x21793, size: 0x8, addend: 0x0, symName: __ZN3mtm10SortedListINSt3__112basic_stringIcNS1_11char_traitsIcEENS1_9allocatorIcEEEEED2Ev, symObjAddr: 0xBD50, symBinAddr: 0x10000F810, symSize: 0x70 }
  - { offsetInCU: 0xB541, offset: 0x217F5, size: 0x8, addend: 0x0, symName: __ZN3mtm10SortedListINSt3__112basic_stringIcNS1_11char_traitsIcEENS1_9allocatorIcEEEEE14SortedListNode6insertERKS7_, symObjAddr: 0xBDC0, symBinAddr: 0x10000F880, symSize: 0xD0 }
  - { offsetInCU: 0xB582, offset: 0x21836, size: 0x8, addend: 0x0, symName: __ZN3mtm10SortedListINSt3__112basic_stringIcNS1_11char_traitsIcEENS1_9allocatorIcEEEEE14SortedListNodeC1ES7_, symObjAddr: 0xBE90, symBinAddr: 0x10000F950, symSize: 0x110 }
  - { offsetInCU: 0xB5CE, offset: 0x21882, size: 0x8, addend: 0x0, symName: __ZN3mtm10SortedListINSt3__112basic_stringIcNS1_11char_traitsIcEENS1_9allocatorIcEEEEE14SortedListNode3addEPS9_, symObjAddr: 0xBFA0, symBinAddr: 0x10000FA60, symSize: 0x90 }
  - { offsetInCU: 0xB601, offset: 0x218B5, size: 0x8, addend: 0x0, symName: __ZNK3mtm10SortedListINSt3__112basic_stringIcNS1_11char_traitsIcEENS1_9allocatorIcEEEEE14SortedListNode7hasNextEv, symObjAddr: 0xC030, symBinAddr: 0x10000FAF0, symSize: 0x30 }
  - { offsetInCU: 0xB626, offset: 0x218DA, size: 0x8, addend: 0x0, symName: __ZN3mtm10SortedListINSt3__112basic_stringIcNS1_11char_traitsIcEENS1_9allocatorIcEEEEE14SortedListNode12addImmediateEPS9_, symObjAddr: 0xC060, symBinAddr: 0x10000FB20, symSize: 0x40 }
  - { offsetInCU: 0xB659, offset: 0x2190D, size: 0x8, addend: 0x0, symName: __ZNK3mtm10SortedListINSt3__112basic_stringIcNS1_11char_traitsIcEENS1_9allocatorIcEEEEE14SortedListNode6isTailEv, symObjAddr: 0xC0D0, symBinAddr: 0x10000FB90, symSize: 0x50 }
  - { offsetInCU: 0xB67E, offset: 0x21932, size: 0x8, addend: 0x0, symName: __ZNKSt3__112basic_stringIcNS_11char_traitsIcEENS_9allocatorIcEEE7compareB8ue170006ERKS5_, symObjAddr: 0xC150, symBinAddr: 0x10000FC10, symSize: 0x40 }
  - { offsetInCU: 0xB6B4, offset: 0x21968, size: 0x8, addend: 0x0, symName: __ZNKSt3__112basic_stringIcNS_11char_traitsIcEENS_9allocatorIcEEE7compareINS_17basic_string_viewIcS2_EELi0EEEiRKT_, symObjAddr: 0xC190, symBinAddr: 0x10000FC50, symSize: 0xF0 }
  - { offsetInCU: 0xB736, offset: 0x219EA, size: 0x8, addend: 0x0, symName: __ZNKSt3__112basic_stringIcNS_11char_traitsIcEENS_9allocatorIcEEEcvNS_17basic_string_viewIcS2_EEB8ue170006Ev, symObjAddr: 0xC280, symBinAddr: 0x10000FD40, symSize: 0x50 }
  - { offsetInCU: 0xB75B, offset: 0x21A0F, size: 0x8, addend: 0x0, symName: __ZNKSt3__117basic_string_viewIcNS_11char_traitsIcEEE4sizeB8ue170006Ev, symObjAddr: 0xC320, symBinAddr: 0x10000FD90, symSize: 0x20 }
  - { offsetInCU: 0xB780, offset: 0x21A34, size: 0x8, addend: 0x0, symName: __ZNKSt3__117basic_string_viewIcNS_11char_traitsIcEEE4dataB8ue170006Ev, symObjAddr: 0xC3A0, symBinAddr: 0x10000FDB0, symSize: 0x20 }
  - { offsetInCU: 0xB7B9, offset: 0x21A6D, size: 0x8, addend: 0x0, symName: __ZNKSt3__16__lessIvvEclB8ue170006ImmEEbRKT_RKT0_, symObjAddr: 0xC5B0, symBinAddr: 0x10000FE50, symSize: 0x30 }
  - { offsetInCU: 0xB80C, offset: 0x21AC0, size: 0x8, addend: 0x0, symName: __ZNSt3__117basic_string_viewIcNS_11char_traitsIcEEEC1B8ue170006EPKcm, symObjAddr: 0xC5E0, symBinAddr: 0x10000FE80, symSize: 0x30 }
  - { offsetInCU: 0xB852, offset: 0x21B06, size: 0x8, addend: 0x0, symName: __ZNSt3__117basic_string_viewIcNS_11char_traitsIcEEEC2B8ue170006EPKcm, symObjAddr: 0xC610, symBinAddr: 0x10000FEB0, symSize: 0x30 }
  - { offsetInCU: 0xB898, offset: 0x21B4C, size: 0x8, addend: 0x0, symName: __ZN3mtm10SortedListINSt3__112basic_stringIcNS1_11char_traitsIcEENS1_9allocatorIcEEEEE13ConstIteratorC1EPKNS8_14SortedListNodeE, symObjAddr: 0xC640, symBinAddr: 0x10000FEE0, symSize: 0x30 }
  - { offsetInCU: 0xB8CF, offset: 0x21B83, size: 0x8, addend: 0x0, symName: __ZN3mtm10SortedListINSt3__112basic_stringIcNS1_11char_traitsIcEENS1_9allocatorIcEEEEE13ConstIteratorC2EPKNS8_14SortedListNodeE, symObjAddr: 0xC670, symBinAddr: 0x10000FF10, symSize: 0x20 }
  - { offsetInCU: 0xB906, offset: 0x21BBA, size: 0x8, addend: 0x0, symName: __ZN3mtm10SortedListINSt3__112basic_stringIcNS1_11char_traitsIcEENS1_9allocatorIcEEEEE8swapListERS8_, symObjAddr: 0xC7A0, symBinAddr: 0x10000FF30, symSize: 0x60 }
  - { offsetInCU: 0xB93E, offset: 0x21BF2, size: 0x8, addend: 0x0, symName: __ZN3mtm10SortedListINSt3__112basic_stringIcNS1_11char_traitsIcEENS1_9allocatorIcEEEEE4swapIPNS8_14SortedListNodeEEEvRT_SD_, symObjAddr: 0xC800, symBinAddr: 0x10000FF90, symSize: 0x40 }
  - { offsetInCU: 0xB996, offset: 0x21C4A, size: 0x8, addend: 0x0, symName: __ZN3mtm10SortedListINSt3__112basic_stringIcNS1_11char_traitsIcEENS1_9allocatorIcEEEEE4swapIiEEvRT_SB_, symObjAddr: 0xC840, symBinAddr: 0x10000FFD0, symSize: 0x30 }
  - { offsetInCU: 0xBA16, offset: 0x21CCA, size: 0x8, addend: 0x0, symName: '__ZZ20testOperatorChainingvENK3$_0clERKNSt3__112basic_stringIcNS0_11char_traitsIcEENS0_9allocatorIcEEEE', symObjAddr: 0xD0C0, symBinAddr: 0x100010000, symSize: 0x40 }
  - { offsetInCU: 0xBA4D, offset: 0x21D01, size: 0x8, addend: 0x0, symName: __ZNKSt3__112basic_stringIcNS_11char_traitsIcEENS_9allocatorIcEEEixB8ue170006Em, symObjAddr: 0xD100, symBinAddr: 0x100010040, symSize: 0x30 }
  - { offsetInCU: 0xBA8B, offset: 0x21D3F, size: 0x8, addend: 0x0, symName: '__ZZ20testOperatorChainingvENK3$_1clENSt3__112basic_stringIcNS0_11char_traitsIcEENS0_9allocatorIcEEEE', symObjAddr: 0xD130, symBinAddr: 0x100010070, symSize: 0xB0 }
  - { offsetInCU: 0xBB15, offset: 0x21DC9, size: 0x8, addend: 0x0, symName: __ZNSt3__112basic_stringIcNS_11char_traitsIcEENS_9allocatorIcEEE5beginB8ue170006Ev, symObjAddr: 0xD1E0, symBinAddr: 0x100010120, symSize: 0x50 }
  - { offsetInCU: 0xBB3A, offset: 0x21DEE, size: 0x8, addend: 0x0, symName: __ZNSt3__112basic_stringIcNS_11char_traitsIcEENS_9allocatorIcEEE3endB8ue170006Ev, symObjAddr: 0xD230, symBinAddr: 0x100010170, symSize: 0x50 }
  - { offsetInCU: 0xBB5F, offset: 0x21E13, size: 0x8, addend: 0x0, symName: __ZNKSt3__111__wrap_iterIPcEdeB8ue170006Ev, symObjAddr: 0xD2B0, symBinAddr: 0x1000101F0, symSize: 0x20 }
  - { offsetInCU: 0xBB84, offset: 0x21E38, size: 0x8, addend: 0x0, symName: __ZNSt3__111__wrap_iterIPcEppB8ue170006Ev, symObjAddr: 0xD2F0, symBinAddr: 0x100010230, symSize: 0x20 }
  - { offsetInCU: 0xBBA9, offset: 0x21E5D, size: 0x8, addend: 0x0, symName: __ZNSt3__112basic_stringIcNS_11char_traitsIcEENS_9allocatorIcEEEC1B8ue170006EOS5_, symObjAddr: 0xD310, symBinAddr: 0x100010250, symSize: 0x30 }
  - { offsetInCU: 0xBBE0, offset: 0x21E94, size: 0x8, addend: 0x0, symName: __ZNSt3__112basic_stringIcNS_11char_traitsIcEENS_9allocatorIcEEE15__make_iteratorB8ue170006EPc, symObjAddr: 0xD340, symBinAddr: 0x100010280, symSize: 0x30 }
  - { offsetInCU: 0xBC14, offset: 0x21EC8, size: 0x8, addend: 0x0, symName: __ZNSt3__111__wrap_iterIPcEC1B8ue170006ES1_, symObjAddr: 0xD370, symBinAddr: 0x1000102B0, symSize: 0x30 }
  - { offsetInCU: 0xBC4A, offset: 0x21EFE, size: 0x8, addend: 0x0, symName: __ZNSt3__111__wrap_iterIPcEC2B8ue170006ES1_, symObjAddr: 0xD3A0, symBinAddr: 0x1000102E0, symSize: 0x20 }
  - { offsetInCU: 0xBC80, offset: 0x21F34, size: 0x8, addend: 0x0, symName: __ZNKSt3__111__wrap_iterIPcE4baseB8ue170006Ev, symObjAddr: 0xD400, symBinAddr: 0x100010340, symSize: 0x20 }
  - { offsetInCU: 0xBCA5, offset: 0x21F59, size: 0x8, addend: 0x0, symName: __ZNSt3__112basic_stringIcNS_11char_traitsIcEENS_9allocatorIcEEEC2B8ue170006EOS5_, symObjAddr: 0xD420, symBinAddr: 0x100010360, symSize: 0x50 }
  - { offsetInCU: 0xBCDC, offset: 0x21F90, size: 0x8, addend: 0x0, symName: __ZNSt3__112basic_stringIcNS_11char_traitsIcEENS_9allocatorIcEEE14__default_initB8ue170006Ev, symObjAddr: 0xD470, symBinAddr: 0x1000103B0, symSize: 0x50 }
  - { offsetInCU: 0xBD0B, offset: 0x21FBF, size: 0x8, addend: 0x0, symName: '__ZZ20testOperatorChainingvENK3$_2clERKNSt3__112basic_stringIcNS0_11char_traitsIcEENS0_9allocatorIcEEEE', symObjAddr: 0xD4C0, symBinAddr: 0x100010400, symSize: 0x30 }
  - { offsetInCU: 0xBD42, offset: 0x21FF6, size: 0x8, addend: 0x0, symName: __ZNKSt3__112basic_stringIcNS_11char_traitsIcEENS_9allocatorIcEEE6lengthB8ue170006Ev, symObjAddr: 0xD4F0, symBinAddr: 0x100010430, symSize: 0x20 }
  - { offsetInCU: 0xBD71, offset: 0x22025, size: 0x8, addend: 0x0, symName: '__ZZ20testOperatorChainingvENK3$_3clENSt3__112basic_stringIcNS0_11char_traitsIcEENS0_9allocatorIcEEEE', symObjAddr: 0xD510, symBinAddr: 0x100010450, symSize: 0xB0 }
  - { offsetInCU: 0xBE05, offset: 0x220B9, size: 0x8, addend: 0x0, symName: '__ZZ20testOperatorChainingvENK3$_4clERKNSt3__112basic_stringIcNS0_11char_traitsIcEENS0_9allocatorIcEEEE', symObjAddr: 0xD5C0, symBinAddr: 0x100010500, symSize: 0x60 }
  - { offsetInCU: 0xBE46, offset: 0x220FA, size: 0x8, addend: 0x0, symName: '__ZZ20testOperatorChainingvENK3$_5clENSt3__112basic_stringIcNS0_11char_traitsIcEENS0_9allocatorIcEEEE', symObjAddr: 0xD620, symBinAddr: 0x100010560, symSize: 0x40 }
  - { offsetInCU: 0xBE88, offset: 0x2213C, size: 0x8, addend: 0x0, symName: __ZNSt3__116allocator_traitsINS_9allocatorIcEEE37select_on_container_copy_constructionB8ue170006IS2_vvEES2_RKS2_, symObjAddr: 0xD760, symBinAddr: 0x1000106A0, symSize: 0x10 }
  - { offsetInCU: 0xBEB9, offset: 0x2216D, size: 0x8, addend: 0x0, symName: __ZNKSt3__112basic_stringIcNS_11char_traitsIcEENS_9allocatorIcEEE13get_allocatorB8ue170006Ev, symObjAddr: 0xD770, symBinAddr: 0x1000106B0, symSize: 0x20 }
  - { offsetInCU: 0xBEDE, offset: 0x22192, size: 0x8, addend: 0x0, symName: __ZNSt3__112basic_stringIcNS_11char_traitsIcEENS_9allocatorIcEEEC1B8ue170006ENS_24__uninitialized_size_tagEmRKS4_, symObjAddr: 0xD790, symBinAddr: 0x1000106D0, symSize: 0x30 }
  - { offsetInCU: 0xBF30, offset: 0x221E4, size: 0x8, addend: 0x0, symName: __ZNSt3__111char_traitsIcE4copyB8ue170006EPcPKcm, symObjAddr: 0xD7C0, symBinAddr: 0x100010700, symSize: 0x40 }
  - { offsetInCU: 0xBF6F, offset: 0x22223, size: 0x8, addend: 0x0, symName: __ZNSt3__111char_traitsIcE6assignB8ue170006EPcmc, symObjAddr: 0xD800, symBinAddr: 0x100010740, symSize: 0x40 }
  - { offsetInCU: 0xBFAE, offset: 0x22262, size: 0x8, addend: 0x0, symName: __ZNKSt3__112basic_stringIcNS_11char_traitsIcEENS_9allocatorIcEEE7__allocB8ue170006Ev, symObjAddr: 0xD840, symBinAddr: 0x100010780, symSize: 0x20 }
  - { offsetInCU: 0xBFD3, offset: 0x22287, size: 0x8, addend: 0x0, symName: __ZNKSt3__117__compressed_pairINS_12basic_stringIcNS_11char_traitsIcEENS_9allocatorIcEEE5__repES5_E6secondB8ue170006Ev, symObjAddr: 0xD860, symBinAddr: 0x1000107A0, symSize: 0x20 }
  - { offsetInCU: 0xBFF8, offset: 0x222AC, size: 0x8, addend: 0x0, symName: __ZNKSt3__122__compressed_pair_elemINS_9allocatorIcEELi1ELb1EE5__getB8ue170006Ev, symObjAddr: 0xD880, symBinAddr: 0x1000107C0, symSize: 0x10 }
  - { offsetInCU: 0xC01D, offset: 0x222D1, size: 0x8, addend: 0x0, symName: __ZNSt3__112basic_stringIcNS_11char_traitsIcEENS_9allocatorIcEEEC2B8ue170006ENS_24__uninitialized_size_tagEmRKS4_, symObjAddr: 0xD890, symBinAddr: 0x1000107D0, symSize: 0x110 }
  - { offsetInCU: 0xC09D, offset: 0x22351, size: 0x8, addend: 0x0, symName: __ZNSt3__117__compressed_pairINS_12basic_stringIcNS_11char_traitsIcEENS_9allocatorIcEEE5__repES5_EC1B8ue170006INS_18__default_init_tagERKS5_EEOT_OT0_, symObjAddr: 0xD9A0, symBinAddr: 0x1000108E0, symSize: 0x30 }
  - { offsetInCU: 0xC0F3, offset: 0x223A7, size: 0x8, addend: 0x0, symName: __ZNKSt3__112basic_stringIcNS_11char_traitsIcEENS_9allocatorIcEEE8max_sizeB8ue170006Ev, symObjAddr: 0xD9D0, symBinAddr: 0x100010910, symSize: 0xA0 }
  - { offsetInCU: 0xC144, offset: 0x223F8, size: 0x8, addend: 0x0, symName: __ZNKSt3__112basic_stringIcNS_11char_traitsIcEENS_9allocatorIcEEE20__throw_length_errorB8ue170006Ev, symObjAddr: 0xDA70, symBinAddr: 0x1000109B0, symSize: 0x20 }
  - { offsetInCU: 0xC169, offset: 0x2241D, size: 0x8, addend: 0x0, symName: __ZNSt3__112basic_stringIcNS_11char_traitsIcEENS_9allocatorIcEEE13__fits_in_ssoB8ue170006Em, symObjAddr: 0xDA90, symBinAddr: 0x1000109D0, symSize: 0x20 }
  - { offsetInCU: 0xC18D, offset: 0x22441, size: 0x8, addend: 0x0, symName: __ZNSt3__112basic_stringIcNS_11char_traitsIcEENS_9allocatorIcEEE16__set_short_sizeB8ue170006Em, symObjAddr: 0xDAB0, symBinAddr: 0x1000109F0, symSize: 0x50 }
  - { offsetInCU: 0xC1C1, offset: 0x22475, size: 0x8, addend: 0x0, symName: __ZNSt3__112basic_stringIcNS_11char_traitsIcEENS_9allocatorIcEEE11__recommendB8ue170006Em, symObjAddr: 0xDB00, symBinAddr: 0x100010A40, symSize: 0x70 }
  - { offsetInCU: 0xC1F4, offset: 0x224A8, size: 0x8, addend: 0x0, symName: __ZNSt3__116allocator_traitsINS_9allocatorIcEEE8allocateB8ue170006ERS2_m, symObjAddr: 0xDB70, symBinAddr: 0x100010AB0, symSize: 0x30 }
  - { offsetInCU: 0xC227, offset: 0x224DB, size: 0x8, addend: 0x0, symName: __ZNSt3__112basic_stringIcNS_11char_traitsIcEENS_9allocatorIcEEE7__allocB8ue170006Ev, symObjAddr: 0xDBA0, symBinAddr: 0x100010AE0, symSize: 0x20 }
  - { offsetInCU: 0xC24C, offset: 0x22500, size: 0x8, addend: 0x0, symName: __ZNSt3__112basic_stringIcNS_11char_traitsIcEENS_9allocatorIcEEE16__begin_lifetimeB8ue170006EPcm, symObjAddr: 0xDBC0, symBinAddr: 0x100010B00, symSize: 0x10 }
  - { offsetInCU: 0xC27F, offset: 0x22533, size: 0x8, addend: 0x0, symName: __ZNSt3__112basic_stringIcNS_11char_traitsIcEENS_9allocatorIcEEE14__set_long_capB8ue170006Em, symObjAddr: 0xDBD0, symBinAddr: 0x100010B10, symSize: 0x70 }
  - { offsetInCU: 0xC2B3, offset: 0x22567, size: 0x8, addend: 0x0, symName: __ZNSt3__112basic_stringIcNS_11char_traitsIcEENS_9allocatorIcEEE18__set_long_pointerB8ue170006EPc, symObjAddr: 0xDC40, symBinAddr: 0x100010B80, symSize: 0x30 }
  - { offsetInCU: 0xC2E7, offset: 0x2259B, size: 0x8, addend: 0x0, symName: __ZNSt3__112basic_stringIcNS_11char_traitsIcEENS_9allocatorIcEEE15__set_long_sizeB8ue170006Em, symObjAddr: 0xDC70, symBinAddr: 0x100010BB0, symSize: 0x30 }
  - { offsetInCU: 0xC31B, offset: 0x225CF, size: 0x8, addend: 0x0, symName: __ZNSt3__117__compressed_pairINS_12basic_stringIcNS_11char_traitsIcEENS_9allocatorIcEEE5__repES5_EC2B8ue170006INS_18__default_init_tagERKS5_EEOT_OT0_, symObjAddr: 0xDCA0, symBinAddr: 0x100010BE0, symSize: 0x40 }
  - { offsetInCU: 0xC371, offset: 0x22625, size: 0x8, addend: 0x0, symName: __ZNSt3__122__compressed_pair_elemINS_9allocatorIcEELi1ELb1EEC2B8ue170006IRKS2_vEEOT_, symObjAddr: 0xDCE0, symBinAddr: 0x100010C20, symSize: 0x10 }
  - { offsetInCU: 0xC3B2, offset: 0x22666, size: 0x8, addend: 0x0, symName: __ZNSt3__116allocator_traitsINS_9allocatorIcEEE8max_sizeB8ue170006IS2_vEEmRKS2_, symObjAddr: 0xDCF0, symBinAddr: 0x100010C30, symSize: 0x20 }
  - { offsetInCU: 0xC3E1, offset: 0x22695, size: 0x8, addend: 0x0, symName: __ZNSt3__114numeric_limitsImE3maxB8ue170006Ev, symObjAddr: 0xDD10, symBinAddr: 0x100010C50, symSize: 0x10 }
  - { offsetInCU: 0xC3F5, offset: 0x226A9, size: 0x8, addend: 0x0, symName: __ZNKSt3__19allocatorIcE8max_sizeB8ue170006Ev, symObjAddr: 0xDD20, symBinAddr: 0x100010C60, symSize: 0x20 }
  - { offsetInCU: 0xC41A, offset: 0x226CE, size: 0x8, addend: 0x0, symName: __ZNSt3__123__libcpp_numeric_limitsImLb1EE3maxB8ue170006Ev, symObjAddr: 0xDD40, symBinAddr: 0x100010C80, symSize: 0x10 }
  - { offsetInCU: 0xC42E, offset: 0x226E2, size: 0x8, addend: 0x0, symName: __ZNSt12length_errorC1B8ue170006EPKc, symObjAddr: 0xDDC0, symBinAddr: 0x100010D00, symSize: 0x30 }
  - { offsetInCU: 0xC464, offset: 0x22718, size: 0x8, addend: 0x0, symName: __ZNSt12length_errorC2B8ue170006EPKc, symObjAddr: 0xDDF0, symBinAddr: 0x100010D30, symSize: 0x40 }
  - { offsetInCU: 0xC49A, offset: 0x2274E, size: 0x8, addend: 0x0, symName: __ZNSt3__112basic_stringIcNS_11char_traitsIcEENS_9allocatorIcEEE10__align_itB8ue170006ILm16EEEmm, symObjAddr: 0xDE30, symBinAddr: 0x100010D70, symSize: 0x20 }
  - { offsetInCU: 0xC4C8, offset: 0x2277C, size: 0x8, addend: 0x0, symName: __ZNSt3__19allocatorIcE8allocateB8ue170006Em, symObjAddr: 0xDE50, symBinAddr: 0x100010D90, symSize: 0x50 }
  - { offsetInCU: 0xC4FB, offset: 0x227AF, size: 0x8, addend: 0x0, symName: __ZNSt3__117__compressed_pairINS_12basic_stringIcNS_11char_traitsIcEENS_9allocatorIcEEE5__repES5_E6secondB8ue170006Ev, symObjAddr: 0xDFB0, symBinAddr: 0x100010EF0, symSize: 0x20 }
  - { offsetInCU: 0xC520, offset: 0x227D4, size: 0x8, addend: 0x0, symName: __ZNSt3__122__compressed_pair_elemINS_9allocatorIcEELi1ELb1EE5__getB8ue170006Ev, symObjAddr: 0xDFD0, symBinAddr: 0x100010F10, symSize: 0x10 }
  - { offsetInCU: 0xC568, offset: 0x2281C, size: 0x8, addend: 0x0, symName: __ZNKSt3__114__copy_trivialclB8ue170006IKccLi0EEENS_4pairIPT_PT0_EES5_S5_S7_, symObjAddr: 0xE1E0, symBinAddr: 0x100011120, symSize: 0x40 }
  - { offsetInCU: 0xC5ED, offset: 0x228A1, size: 0x8, addend: 0x0, symName: __ZNSt3__14pairIPKcS2_EC1B8ue170006IS2_S2_LPv0EEEOT_OT0_, symObjAddr: 0xE330, symBinAddr: 0x100011270, symSize: 0x30 }
  - { offsetInCU: 0xC64A, offset: 0x228FE, size: 0x8, addend: 0x0, symName: __ZNSt3__14pairIPKcS2_EC2B8ue170006IS2_S2_LPv0EEEOT_OT0_, symObjAddr: 0xE360, symBinAddr: 0x1000112A0, symSize: 0x30 }
  - { offsetInCU: 0xC6A7, offset: 0x2295B, size: 0x8, addend: 0x0, symName: __ZNSt3__118__unwrap_iter_implIPKcLb1EE8__unwrapB8ue170006ES2_, symObjAddr: 0xE390, symBinAddr: 0x1000112D0, symSize: 0x20 }
  - { offsetInCU: 0xC6D4, offset: 0x22988, size: 0x8, addend: 0x0, symName: __ZNSt3__14pairIPKcPcEC1B8ue170006IRS2_S3_LPv0EEEOT_OT0_, symObjAddr: 0xE4A0, symBinAddr: 0x1000113E0, symSize: 0x30 }
  - { offsetInCU: 0xC731, offset: 0x229E5, size: 0x8, addend: 0x0, symName: __ZNSt3__14pairIPKcPcEC2B8ue170006IRS2_S3_LPv0EEEOT_OT0_, symObjAddr: 0xE4D0, symBinAddr: 0x100011410, symSize: 0x30 }
  - { offsetInCU: 0xC78E, offset: 0x22A42, size: 0x8, addend: 0x0, symName: __ZNSt3__118__unwrap_iter_implIPcLb1EE8__unwrapB8ue170006ES1_, symObjAddr: 0xE500, symBinAddr: 0x100011440, symSize: 0x20 }
  - { offsetInCU: 0xC7B1, offset: 0x22A65, size: 0x8, addend: 0x0, symName: __ZNSt3__14pairIPKcPcEC1B8ue170006IS2_S3_LPv0EEEOT_OT0_, symObjAddr: 0xE520, symBinAddr: 0x100011460, symSize: 0x30 }
  - { offsetInCU: 0xC80E, offset: 0x22AC2, size: 0x8, addend: 0x0, symName: __ZNSt3__14pairIPKcPcEC2B8ue170006IS2_S3_LPv0EEEOT_OT0_, symObjAddr: 0xE550, symBinAddr: 0x100011490, symSize: 0x30 }
  - { offsetInCU: 0xC86B, offset: 0x22B1F, size: 0x8, addend: 0x0, symName: __ZNSt3__118__unwrap_iter_implIPKcLb1EE8__rewrapB8ue170006ES2_S2_, symObjAddr: 0xE5C0, symBinAddr: 0x100011500, symSize: 0x40 }
  - { offsetInCU: 0xC89C, offset: 0x22B50, size: 0x8, addend: 0x0, symName: __ZNSt3__118__unwrap_iter_implIPcLb1EE8__rewrapB8ue170006ES1_S1_, symObjAddr: 0xE600, symBinAddr: 0x100011540, symSize: 0x40 }
  - { offsetInCU: 0xC8D7, offset: 0x22B8B, size: 0x8, addend: 0x0, symName: '__ZZ20testOperatorChainingvENK3$_6clENSt3__112basic_stringIcNS0_11char_traitsIcEENS0_9allocatorIcEEEE', symObjAddr: 0xE6E0, symBinAddr: 0x100011620, symSize: 0x40 }
  - { offsetInCU: 0xC919, offset: 0x22BCD, size: 0x8, addend: 0x0, symName: '__ZZ20testOperatorChainingvENK3$_7clENSt3__112basic_stringIcNS0_11char_traitsIcEENS0_9allocatorIcEEEE', symObjAddr: 0xE720, symBinAddr: 0x100011660, symSize: 0x40 }
  - { offsetInCU: 0xC95B, offset: 0x22C0F, size: 0x8, addend: 0x0, symName: '__ZZ33testComplexAssignFilterOperationsvENK3$_8clERK4Task', symObjAddr: 0xED00, symBinAddr: 0x1000116A0, symSize: 0x120 }
  - { offsetInCU: 0xC9AC, offset: 0x22C60, size: 0x8, addend: 0x0, symName: '__ZZ33testComplexAssignFilterOperationsvENK3$_9clERK4Task', symObjAddr: 0xEE20, symBinAddr: 0x1000117C0, symSize: 0x120 }
  - { offsetInCU: 0xC9FD, offset: 0x22CB1, size: 0x8, addend: 0x0, symName: '__ZZ33testComplexAssignFilterOperationsvENK4$_10clERK4Task', symObjAddr: 0xEF40, symBinAddr: 0x1000118E0, symSize: 0x50 }
  - { offsetInCU: 0xCA3E, offset: 0x22CF2, size: 0x8, addend: 0x0, symName: '__ZZ33testComplexAssignFilterOperationsvENK4$_11clERK4Task', symObjAddr: 0xEF90, symBinAddr: 0x100011930, symSize: 0x30 }
...
